
permuteencrypttest.exe:     file format pei-i386


Disassembly of section .text:

00401000 <__gnu_exception_handler@4>:
  401000:	53                   	push   ebx
  401001:	83 ec 18             	sub    esp,0x18
  401004:	8b 44 24 20          	mov    eax,DWORD PTR [esp+0x20]
  401008:	8b 00                	mov    eax,DWORD PTR [eax]
  40100a:	8b 00                	mov    eax,DWORD PTR [eax]
  40100c:	3d 91 00 00 c0       	cmp    eax,0xc0000091
  401011:	77 4d                	ja     401060 <__gnu_exception_handler@4+0x60>
  401013:	3d 8d 00 00 c0       	cmp    eax,0xc000008d
  401018:	73 5b                	jae    401075 <__gnu_exception_handler@4+0x75>
  40101a:	3d 05 00 00 c0       	cmp    eax,0xc0000005
  40101f:	0f 85 8e 00 00 00    	jne    4010b3 <__gnu_exception_handler@4+0xb3>
  401025:	c7 44 24 04 00 00 00 	mov    DWORD PTR [esp+0x4],0x0
  40102c:	00 
  40102d:	c7 04 24 0b 00 00 00 	mov    DWORD PTR [esp],0xb
  401034:	e8 37 70 00 00       	call   408070 <_signal>
  401039:	83 f8 01             	cmp    eax,0x1
  40103c:	0f 84 c1 00 00 00    	je     401103 <__gnu_exception_handler@4+0x103>
  401042:	85 c0                	test   eax,eax
  401044:	0f 85 a6 00 00 00    	jne    4010f0 <__gnu_exception_handler@4+0xf0>
  40104a:	8d b6 00 00 00 00    	lea    esi,[esi+0x0]
  401050:	31 c0                	xor    eax,eax
  401052:	83 c4 18             	add    esp,0x18
  401055:	5b                   	pop    ebx
  401056:	c2 04 00             	ret    0x4
  401059:	8d b4 26 00 00 00 00 	lea    esi,[esi+eiz*1+0x0]
  401060:	3d 94 00 00 c0       	cmp    eax,0xc0000094
  401065:	74 19                	je     401080 <__gnu_exception_handler@4+0x80>
  401067:	3d 96 00 00 c0       	cmp    eax,0xc0000096
  40106c:	74 4c                	je     4010ba <__gnu_exception_handler@4+0xba>
  40106e:	3d 93 00 00 c0       	cmp    eax,0xc0000093
  401073:	75 db                	jne    401050 <__gnu_exception_handler@4+0x50>
  401075:	bb 01 00 00 00       	mov    ebx,0x1
  40107a:	eb 06                	jmp    401082 <__gnu_exception_handler@4+0x82>
  40107c:	8d 74 26 00          	lea    esi,[esi+eiz*1+0x0]
  401080:	31 db                	xor    ebx,ebx
  401082:	c7 44 24 04 00 00 00 	mov    DWORD PTR [esp+0x4],0x0
  401089:	00 
  40108a:	c7 04 24 08 00 00 00 	mov    DWORD PTR [esp],0x8
  401091:	e8 da 6f 00 00       	call   408070 <_signal>
  401096:	83 f8 01             	cmp    eax,0x1
  401099:	0f 84 a1 00 00 00    	je     401140 <__gnu_exception_handler@4+0x140>
  40109f:	85 c0                	test   eax,eax
  4010a1:	74 ad                	je     401050 <__gnu_exception_handler@4+0x50>
  4010a3:	c7 04 24 08 00 00 00 	mov    DWORD PTR [esp],0x8
  4010aa:	ff d0                	call   eax
  4010ac:	b8 ff ff ff ff       	mov    eax,0xffffffff
  4010b1:	eb 9f                	jmp    401052 <__gnu_exception_handler@4+0x52>
  4010b3:	3d 1d 00 00 c0       	cmp    eax,0xc000001d
  4010b8:	75 96                	jne    401050 <__gnu_exception_handler@4+0x50>
  4010ba:	c7 44 24 04 00 00 00 	mov    DWORD PTR [esp+0x4],0x0
  4010c1:	00 
  4010c2:	c7 04 24 04 00 00 00 	mov    DWORD PTR [esp],0x4
  4010c9:	e8 a2 6f 00 00       	call   408070 <_signal>
  4010ce:	83 f8 01             	cmp    eax,0x1
  4010d1:	74 4c                	je     40111f <__gnu_exception_handler@4+0x11f>
  4010d3:	85 c0                	test   eax,eax
  4010d5:	0f 84 75 ff ff ff    	je     401050 <__gnu_exception_handler@4+0x50>
  4010db:	c7 04 24 04 00 00 00 	mov    DWORD PTR [esp],0x4
  4010e2:	ff d0                	call   eax
  4010e4:	b8 ff ff ff ff       	mov    eax,0xffffffff
  4010e9:	e9 64 ff ff ff       	jmp    401052 <__gnu_exception_handler@4+0x52>
  4010ee:	66 90                	xchg   ax,ax
  4010f0:	c7 04 24 0b 00 00 00 	mov    DWORD PTR [esp],0xb
  4010f7:	ff d0                	call   eax
  4010f9:	b8 ff ff ff ff       	mov    eax,0xffffffff
  4010fe:	e9 4f ff ff ff       	jmp    401052 <__gnu_exception_handler@4+0x52>
  401103:	c7 44 24 04 01 00 00 	mov    DWORD PTR [esp+0x4],0x1
  40110a:	00 
  40110b:	c7 04 24 0b 00 00 00 	mov    DWORD PTR [esp],0xb
  401112:	e8 59 6f 00 00       	call   408070 <_signal>
  401117:	83 c8 ff             	or     eax,0xffffffff
  40111a:	e9 33 ff ff ff       	jmp    401052 <__gnu_exception_handler@4+0x52>
  40111f:	c7 44 24 04 01 00 00 	mov    DWORD PTR [esp+0x4],0x1
  401126:	00 
  401127:	c7 04 24 04 00 00 00 	mov    DWORD PTR [esp],0x4
  40112e:	e8 3d 6f 00 00       	call   408070 <_signal>
  401133:	83 c8 ff             	or     eax,0xffffffff
  401136:	e9 17 ff ff ff       	jmp    401052 <__gnu_exception_handler@4+0x52>
  40113b:	90                   	nop
  40113c:	8d 74 26 00          	lea    esi,[esi+eiz*1+0x0]
  401140:	c7 44 24 04 01 00 00 	mov    DWORD PTR [esp+0x4],0x1
  401147:	00 
  401148:	c7 04 24 08 00 00 00 	mov    DWORD PTR [esp],0x8
  40114f:	e8 1c 6f 00 00       	call   408070 <_signal>
  401154:	85 db                	test   ebx,ebx
  401156:	b8 ff ff ff ff       	mov    eax,0xffffffff
  40115b:	0f 84 f1 fe ff ff    	je     401052 <__gnu_exception_handler@4+0x52>
  401161:	89 44 24 0c          	mov    DWORD PTR [esp+0xc],eax
  401165:	e8 06 05 00 00       	call   401670 <__fpreset>
  40116a:	8b 44 24 0c          	mov    eax,DWORD PTR [esp+0xc]
  40116e:	e9 df fe ff ff       	jmp    401052 <__gnu_exception_handler@4+0x52>
  401173:	8d b6 00 00 00 00    	lea    esi,[esi+0x0]
  401179:	8d bc 27 00 00 00 00 	lea    edi,[edi+eiz*1+0x0]

00401180 <___mingw_CRTStartup>:
  401180:	55                   	push   ebp
  401181:	89 e5                	mov    ebp,esp
  401183:	53                   	push   ebx
  401184:	83 ec 14             	sub    esp,0x14
  401187:	a1 80 a0 40 00       	mov    eax,ds:0x40a080
  40118c:	85 c0                	test   eax,eax
  40118e:	74 1c                	je     4011ac <___mingw_CRTStartup+0x2c>
  401190:	c7 44 24 08 00 00 00 	mov    DWORD PTR [esp+0x8],0x0
  401197:	00 
  401198:	c7 44 24 04 02 00 00 	mov    DWORD PTR [esp+0x4],0x2
  40119f:	00 
  4011a0:	c7 04 24 00 00 00 00 	mov    DWORD PTR [esp],0x0
  4011a7:	ff d0                	call   eax
  4011a9:	83 ec 0c             	sub    esp,0xc
  4011ac:	c7 04 24 00 10 40 00 	mov    DWORD PTR [esp],0x401000
  4011b3:	e8 b0 6f 00 00       	call   408168 <_SetUnhandledExceptionFilter@4>
  4011b8:	83 ec 04             	sub    esp,0x4
  4011bb:	e8 c0 04 00 00       	call   401680 <___cpu_features_init>
  4011c0:	e8 ab 04 00 00       	call   401670 <__fpreset>
  4011c5:	e8 96 05 00 00       	call   401760 <__setargv>
  4011ca:	a1 30 d0 40 00       	mov    eax,ds:0x40d030
  4011cf:	85 c0                	test   eax,eax
  4011d1:	74 42                	je     401215 <___mingw_CRTStartup+0x95>
  4011d3:	8b 1d cc e1 40 00    	mov    ebx,DWORD PTR ds:0x40e1cc
  4011d9:	a3 00 90 40 00       	mov    ds:0x409000,eax
  4011de:	89 44 24 04          	mov    DWORD PTR [esp+0x4],eax
  4011e2:	8b 43 10             	mov    eax,DWORD PTR [ebx+0x10]
  4011e5:	89 04 24             	mov    DWORD PTR [esp],eax
  4011e8:	e8 8b 6e 00 00       	call   408078 <__setmode>
  4011ed:	a1 30 d0 40 00       	mov    eax,ds:0x40d030
  4011f2:	89 44 24 04          	mov    DWORD PTR [esp+0x4],eax
  4011f6:	8b 43 30             	mov    eax,DWORD PTR [ebx+0x30]
  4011f9:	89 04 24             	mov    DWORD PTR [esp],eax
  4011fc:	e8 77 6e 00 00       	call   408078 <__setmode>
  401201:	a1 30 d0 40 00       	mov    eax,ds:0x40d030
  401206:	89 44 24 04          	mov    DWORD PTR [esp+0x4],eax
  40120a:	8b 43 50             	mov    eax,DWORD PTR [ebx+0x50]
  40120d:	89 04 24             	mov    DWORD PTR [esp],eax
  401210:	e8 63 6e 00 00       	call   408078 <__setmode>
  401215:	e8 66 6e 00 00       	call   408080 <___p__fmode>
  40121a:	8b 15 00 90 40 00    	mov    edx,DWORD PTR ds:0x409000
  401220:	89 10                	mov    DWORD PTR [eax],edx
  401222:	e8 89 09 00 00       	call   401bb0 <__pei386_runtime_relocator>
  401227:	83 e4 f0             	and    esp,0xfffffff0
  40122a:	e8 e1 0b 00 00       	call   401e10 <___main>
  40122f:	e8 54 6e 00 00       	call   408088 <___p__environ>
  401234:	8b 00                	mov    eax,DWORD PTR [eax]
  401236:	89 44 24 08          	mov    DWORD PTR [esp+0x8],eax
  40123a:	a1 00 d0 40 00       	mov    eax,ds:0x40d000
  40123f:	89 44 24 04          	mov    DWORD PTR [esp+0x4],eax
  401243:	a1 04 d0 40 00       	mov    eax,ds:0x40d004
  401248:	89 04 24             	mov    DWORD PTR [esp],eax
  40124b:	e8 30 72 00 00       	call   408480 <_main>
  401250:	89 c3                	mov    ebx,eax
  401252:	e8 39 6e 00 00       	call   408090 <__cexit>
  401257:	89 1c 24             	mov    DWORD PTR [esp],ebx
  40125a:	e8 11 6f 00 00       	call   408170 <_ExitProcess@4>
  40125f:	90                   	nop

00401260 <__mingw32_init_mainargs>:
  401260:	83 ec 3c             	sub    esp,0x3c
  401263:	8d 44 24 2c          	lea    eax,[esp+0x2c]
  401267:	89 44 24 10          	mov    DWORD PTR [esp+0x10],eax
  40126b:	a1 04 90 40 00       	mov    eax,ds:0x409004
  401270:	c7 44 24 04 00 d0 40 	mov    DWORD PTR [esp+0x4],0x40d000
  401277:	00 
  401278:	c7 04 24 04 d0 40 00 	mov    DWORD PTR [esp],0x40d004
  40127f:	c7 44 24 2c 00 00 00 	mov    DWORD PTR [esp+0x2c],0x0
  401286:	00 
  401287:	83 e0 01             	and    eax,0x1
  40128a:	89 44 24 0c          	mov    DWORD PTR [esp+0xc],eax
  40128e:	8d 44 24 28          	lea    eax,[esp+0x28]
  401292:	89 44 24 08          	mov    DWORD PTR [esp+0x8],eax
  401296:	e8 fd 6d 00 00       	call   408098 <___getmainargs>
  40129b:	83 c4 3c             	add    esp,0x3c
  40129e:	c3                   	ret    
  40129f:	90                   	nop

004012a0 <_mainCRTStartup>:
  4012a0:	83 ec 1c             	sub    esp,0x1c
  4012a3:	c7 04 24 01 00 00 00 	mov    DWORD PTR [esp],0x1
  4012aa:	ff 15 bc e1 40 00    	call   DWORD PTR ds:0x40e1bc
  4012b0:	e8 cb fe ff ff       	call   401180 <___mingw_CRTStartup>
  4012b5:	8d 74 26 00          	lea    esi,[esi+eiz*1+0x0]
  4012b9:	8d bc 27 00 00 00 00 	lea    edi,[edi+eiz*1+0x0]

004012c0 <_WinMainCRTStartup>:
  4012c0:	83 ec 1c             	sub    esp,0x1c
  4012c3:	c7 04 24 02 00 00 00 	mov    DWORD PTR [esp],0x2
  4012ca:	ff 15 bc e1 40 00    	call   DWORD PTR ds:0x40e1bc
  4012d0:	e8 ab fe ff ff       	call   401180 <___mingw_CRTStartup>
  4012d5:	8d 74 26 00          	lea    esi,[esi+eiz*1+0x0]
  4012d9:	8d bc 27 00 00 00 00 	lea    edi,[edi+eiz*1+0x0]

004012e0 <_atexit>:
  4012e0:	a1 dc e1 40 00       	mov    eax,ds:0x40e1dc
  4012e5:	ff e0                	jmp    eax
  4012e7:	89 f6                	mov    esi,esi
  4012e9:	8d bc 27 00 00 00 00 	lea    edi,[edi+eiz*1+0x0]

004012f0 <__onexit>:
  4012f0:	a1 d0 e1 40 00       	mov    eax,ds:0x40e1d0
  4012f5:	ff e0                	jmp    eax
  4012f7:	90                   	nop
  4012f8:	90                   	nop
  4012f9:	90                   	nop
  4012fa:	90                   	nop
  4012fb:	90                   	nop
  4012fc:	90                   	nop
  4012fd:	90                   	nop
  4012fe:	90                   	nop
  4012ff:	90                   	nop

00401300 <___gcc_register_frame>:
  401300:	55                   	push   ebp
  401301:	89 e5                	mov    ebp,esp
  401303:	83 ec 18             	sub    esp,0x18
  401306:	c7 04 24 00 a0 40 00 	mov    DWORD PTR [esp],0x40a000
  40130d:	e8 66 6e 00 00       	call   408178 <_GetModuleHandleA@4>
  401312:	ba 00 00 00 00       	mov    edx,0x0
  401317:	83 ec 04             	sub    esp,0x4
  40131a:	85 c0                	test   eax,eax
  40131c:	74 15                	je     401333 <___gcc_register_frame+0x33>
  40131e:	c7 44 24 04 13 a0 40 	mov    DWORD PTR [esp+0x4],0x40a013
  401325:	00 
  401326:	89 04 24             	mov    DWORD PTR [esp],eax
  401329:	e8 52 6e 00 00       	call   408180 <_GetProcAddress@8>
  40132e:	83 ec 08             	sub    esp,0x8
  401331:	89 c2                	mov    edx,eax
  401333:	85 d2                	test   edx,edx
  401335:	74 11                	je     401348 <___gcc_register_frame+0x48>
  401337:	c7 44 24 04 08 d0 40 	mov    DWORD PTR [esp+0x4],0x40d008
  40133e:	00 
  40133f:	c7 04 24 c0 b0 40 00 	mov    DWORD PTR [esp],0x40b0c0
  401346:	ff d2                	call   edx
  401348:	a1 24 90 40 00       	mov    eax,ds:0x409024
  40134d:	85 c0                	test   eax,eax
  40134f:	74 3a                	je     40138b <___gcc_register_frame+0x8b>
  401351:	c7 04 24 29 a0 40 00 	mov    DWORD PTR [esp],0x40a029
  401358:	e8 1b 6e 00 00       	call   408178 <_GetModuleHandleA@4>
  40135d:	ba 00 00 00 00       	mov    edx,0x0
  401362:	83 ec 04             	sub    esp,0x4
  401365:	85 c0                	test   eax,eax
  401367:	74 15                	je     40137e <___gcc_register_frame+0x7e>
  401369:	c7 44 24 04 37 a0 40 	mov    DWORD PTR [esp+0x4],0x40a037
  401370:	00 
  401371:	89 04 24             	mov    DWORD PTR [esp],eax
  401374:	e8 07 6e 00 00       	call   408180 <_GetProcAddress@8>
  401379:	83 ec 08             	sub    esp,0x8
  40137c:	89 c2                	mov    edx,eax
  40137e:	85 d2                	test   edx,edx
  401380:	74 09                	je     40138b <___gcc_register_frame+0x8b>
  401382:	c7 04 24 24 90 40 00 	mov    DWORD PTR [esp],0x409024
  401389:	ff d2                	call   edx
  40138b:	c9                   	leave  
  40138c:	c3                   	ret    
  40138d:	8d 76 00             	lea    esi,[esi+0x0]

00401390 <___gcc_deregister_frame>:
  401390:	55                   	push   ebp
  401391:	89 e5                	mov    ebp,esp
  401393:	83 ec 18             	sub    esp,0x18
  401396:	c7 04 24 00 a0 40 00 	mov    DWORD PTR [esp],0x40a000
  40139d:	e8 d6 6d 00 00       	call   408178 <_GetModuleHandleA@4>
  4013a2:	ba 00 00 00 00       	mov    edx,0x0
  4013a7:	83 ec 04             	sub    esp,0x4
  4013aa:	85 c0                	test   eax,eax
  4013ac:	74 15                	je     4013c3 <___gcc_deregister_frame+0x33>
  4013ae:	c7 44 24 04 4b a0 40 	mov    DWORD PTR [esp+0x4],0x40a04b
  4013b5:	00 
  4013b6:	89 04 24             	mov    DWORD PTR [esp],eax
  4013b9:	e8 c2 6d 00 00       	call   408180 <_GetProcAddress@8>
  4013be:	83 ec 08             	sub    esp,0x8
  4013c1:	89 c2                	mov    edx,eax
  4013c3:	85 d2                	test   edx,edx
  4013c5:	74 09                	je     4013d0 <___gcc_deregister_frame+0x40>
  4013c7:	c7 04 24 c0 b0 40 00 	mov    DWORD PTR [esp],0x40b0c0
  4013ce:	ff d2                	call   edx
  4013d0:	c9                   	leave  
  4013d1:	c3                   	ret    
  4013d2:	90                   	nop
  4013d3:	90                   	nop
  4013d4:	90                   	nop
  4013d5:	90                   	nop
  4013d6:	90                   	nop
  4013d7:	90                   	nop
  4013d8:	90                   	nop
  4013d9:	90                   	nop
  4013da:	90                   	nop
  4013db:	90                   	nop
  4013dc:	90                   	nop
  4013dd:	90                   	nop
  4013de:	90                   	nop
  4013df:	90                   	nop

004013e0 <_key_schedule>:
  4013e0:	55                   	push   ebp
  4013e1:	57                   	push   edi
  4013e2:	56                   	push   esi
  4013e3:	53                   	push   ebx
  4013e4:	83 ec 10             	sub    esp,0x10
  4013e7:	8b 44 24 24          	mov    eax,DWORD PTR [esp+0x24]
  4013eb:	8b 74 24 28          	mov    esi,DWORD PTR [esp+0x28]
  4013ef:	8b 48 04             	mov    ecx,DWORD PTR [eax+0x4]
  4013f2:	8b 58 08             	mov    ebx,DWORD PTR [eax+0x8]
  4013f5:	8d 7e 30             	lea    edi,[esi+0x30]
  4013f8:	8b 10                	mov    edx,DWORD PTR [eax]
  4013fa:	8b 40 0c             	mov    eax,DWORD PTR [eax+0xc]
  4013fd:	89 4c 24 04          	mov    DWORD PTR [esp+0x4],ecx
  401401:	89 1c 24             	mov    DWORD PTR [esp],ebx
  401404:	89 7c 24 0c          	mov    DWORD PTR [esp+0xc],edi
  401408:	89 44 24 08          	mov    DWORD PTR [esp+0x8],eax
  40140c:	89 df                	mov    edi,ebx
  40140e:	89 c5                	mov    ebp,eax
  401410:	31 cf                	xor    edi,ecx
  401412:	31 dd                	xor    ebp,ebx
  401414:	31 c7                	xor    edi,eax
  401416:	01 d7                	add    edi,edx
  401418:	89 ea                	mov    edx,ebp
  40141a:	21 ca                	and    edx,ecx
  40141c:	c1 cf 1f             	ror    edi,0x1f
  40141f:	31 c2                	xor    edx,eax
  401421:	31 fa                	xor    edx,edi
  401423:	c1 ca 15             	ror    edx,0x15
  401426:	89 d7                	mov    edi,edx
  401428:	31 d5                	xor    ebp,edx
  40142a:	31 c7                	xor    edi,eax
  40142c:	01 cd                	add    ebp,ecx
  40142e:	89 f9                	mov    ecx,edi
  401430:	21 d9                	and    ecx,ebx
  401432:	c1 cd 1e             	ror    ebp,0x1e
  401435:	31 d1                	xor    ecx,edx
  401437:	31 e9                	xor    ecx,ebp
  401439:	c1 c9 19             	ror    ecx,0x19
  40143c:	89 cd                	mov    ebp,ecx
  40143e:	31 cf                	xor    edi,ecx
  401440:	31 d5                	xor    ebp,edx
  401442:	01 df                	add    edi,ebx
  401444:	89 eb                	mov    ebx,ebp
  401446:	21 c3                	and    ebx,eax
  401448:	c1 cf 1d             	ror    edi,0x1d
  40144b:	31 cb                	xor    ebx,ecx
  40144d:	31 fb                	xor    ebx,edi
  40144f:	8b 7c 24 04          	mov    edi,DWORD PTR [esp+0x4]
  401453:	c1 cb 11             	ror    ebx,0x11
  401456:	31 dd                	xor    ebp,ebx
  401458:	01 c5                	add    ebp,eax
  40145a:	89 d8                	mov    eax,ebx
  40145c:	31 c8                	xor    eax,ecx
  40145e:	21 d0                	and    eax,edx
  401460:	c1 cd 1b             	ror    ebp,0x1b
  401463:	31 d8                	xor    eax,ebx
  401465:	31 e8                	xor    eax,ebp
  401467:	8b 6c 24 08          	mov    ebp,DWORD PTR [esp+0x8]
  40146b:	c1 c8 0f             	ror    eax,0xf
  40146e:	31 fa                	xor    edx,edi
  401470:	33 1c 24             	xor    ebx,DWORD PTR [esp]
  401473:	31 f9                	xor    ecx,edi
  401475:	89 16                	mov    DWORD PTR [esi],edx
  401477:	31 fa                	xor    edx,edi
  401479:	83 c6 10             	add    esi,0x10
  40147c:	31 e8                	xor    eax,ebp
  40147e:	89 4e f4             	mov    DWORD PTR [esi-0xc],ecx
  401481:	31 f9                	xor    ecx,edi
  401483:	89 5e f8             	mov    DWORD PTR [esi-0x8],ebx
  401486:	89 46 fc             	mov    DWORD PTR [esi-0x4],eax
  401489:	31 e8                	xor    eax,ebp
  40148b:	33 1c 24             	xor    ebx,DWORD PTR [esp]
  40148e:	3b 74 24 0c          	cmp    esi,DWORD PTR [esp+0xc]
  401492:	0f 85 74 ff ff ff    	jne    40140c <_key_schedule+0x2c>
  401498:	83 c4 10             	add    esp,0x10
  40149b:	5b                   	pop    ebx
  40149c:	5e                   	pop    esi
  40149d:	5f                   	pop    edi
  40149e:	5d                   	pop    ebp
  40149f:	c3                   	ret    

004014a0 <_encrypt>:
  4014a0:	55                   	push   ebp
  4014a1:	57                   	push   edi
  4014a2:	56                   	push   esi
  4014a3:	53                   	push   ebx
  4014a4:	83 ec 3c             	sub    esp,0x3c
  4014a7:	8b 44 24 50          	mov    eax,DWORD PTR [esp+0x50]
  4014ab:	8b 28                	mov    ebp,DWORD PTR [eax]
  4014ad:	8b 70 04             	mov    esi,DWORD PTR [eax+0x4]
  4014b0:	8b 78 08             	mov    edi,DWORD PTR [eax+0x8]
  4014b3:	8b 58 0c             	mov    ebx,DWORD PTR [eax+0xc]
  4014b6:	8d 44 24 0c          	lea    eax,[esp+0xc]
  4014ba:	89 44 24 04          	mov    DWORD PTR [esp+0x4],eax
  4014be:	8b 44 24 54          	mov    eax,DWORD PTR [esp+0x54]
  4014c2:	89 04 24             	mov    DWORD PTR [esp],eax
  4014c5:	e8 16 ff ff ff       	call   4013e0 <_key_schedule>
  4014ca:	8d 4c 24 10          	lea    ecx,[esp+0x10]
  4014ce:	8b 01                	mov    eax,DWORD PTR [ecx]
  4014d0:	33 79 04             	xor    edi,DWORD PTR [ecx+0x4]
  4014d3:	33 59 08             	xor    ebx,DWORD PTR [ecx+0x8]
  4014d6:	c7 44 24 08 02 00 00 	mov    DWORD PTR [esp+0x8],0x2
  4014dd:	00 
  4014de:	31 c5                	xor    ebp,eax
  4014e0:	31 c6                	xor    esi,eax
  4014e2:	89 f8                	mov    eax,edi
  4014e4:	89 da                	mov    edx,ebx
  4014e6:	31 f0                	xor    eax,esi
  4014e8:	31 fa                	xor    edx,edi
  4014ea:	31 d8                	xor    eax,ebx
  4014ec:	01 e8                	add    eax,ebp
  4014ee:	89 d5                	mov    ebp,edx
  4014f0:	21 f5                	and    ebp,esi
  4014f2:	c1 c8 1f             	ror    eax,0x1f
  4014f5:	31 dd                	xor    ebp,ebx
  4014f7:	31 c5                	xor    ebp,eax
  4014f9:	c1 cd 15             	ror    ebp,0x15
  4014fc:	89 e8                	mov    eax,ebp
  4014fe:	31 ea                	xor    edx,ebp
  401500:	31 d8                	xor    eax,ebx
  401502:	01 f2                	add    edx,esi
  401504:	89 c6                	mov    esi,eax
  401506:	21 fe                	and    esi,edi
  401508:	c1 ca 1e             	ror    edx,0x1e
  40150b:	31 ee                	xor    esi,ebp
  40150d:	31 d6                	xor    esi,edx
  40150f:	c1 ce 19             	ror    esi,0x19
  401512:	89 f2                	mov    edx,esi
  401514:	31 f0                	xor    eax,esi
  401516:	31 ea                	xor    edx,ebp
  401518:	01 f8                	add    eax,edi
  40151a:	89 d7                	mov    edi,edx
  40151c:	21 df                	and    edi,ebx
  40151e:	c1 c8 1d             	ror    eax,0x1d
  401521:	31 f7                	xor    edi,esi
  401523:	31 c7                	xor    edi,eax
  401525:	c1 cf 11             	ror    edi,0x11
  401528:	31 fa                	xor    edx,edi
  40152a:	01 da                	add    edx,ebx
  40152c:	89 fb                	mov    ebx,edi
  40152e:	31 f3                	xor    ebx,esi
  401530:	21 eb                	and    ebx,ebp
  401532:	c1 ca 1b             	ror    edx,0x1b
  401535:	31 fb                	xor    ebx,edi
  401537:	31 d3                	xor    ebx,edx
  401539:	c1 cb 0f             	ror    ebx,0xf
  40153c:	83 6c 24 08 01       	sub    DWORD PTR [esp+0x8],0x1
  401541:	75 9f                	jne    4014e2 <_encrypt+0x42>
  401543:	83 c1 10             	add    ecx,0x10
  401546:	8d 44 24 40          	lea    eax,[esp+0x40]
  40154a:	39 c1                	cmp    ecx,eax
  40154c:	75 80                	jne    4014ce <_encrypt+0x2e>
  40154e:	8b 44 24 10          	mov    eax,DWORD PTR [esp+0x10]
  401552:	8b 4c 24 50          	mov    ecx,DWORD PTR [esp+0x50]
  401556:	33 7c 24 14          	xor    edi,DWORD PTR [esp+0x14]
  40155a:	33 5c 24 18          	xor    ebx,DWORD PTR [esp+0x18]
  40155e:	31 c5                	xor    ebp,eax
  401560:	31 c6                	xor    esi,eax
  401562:	89 29                	mov    DWORD PTR [ecx],ebp
  401564:	89 71 04             	mov    DWORD PTR [ecx+0x4],esi
  401567:	89 79 08             	mov    DWORD PTR [ecx+0x8],edi
  40156a:	89 59 0c             	mov    DWORD PTR [ecx+0xc],ebx
  40156d:	83 c4 3c             	add    esp,0x3c
  401570:	5b                   	pop    ebx
  401571:	5e                   	pop    esi
  401572:	5f                   	pop    edi
  401573:	5d                   	pop    ebp
  401574:	c3                   	ret    
  401575:	90                   	nop
  401576:	90                   	nop
  401577:	90                   	nop
  401578:	90                   	nop
  401579:	90                   	nop
  40157a:	90                   	nop
  40157b:	90                   	nop
  40157c:	90                   	nop
  40157d:	90                   	nop
  40157e:	90                   	nop
  40157f:	90                   	nop

00401580 <___dyn_tls_dtor@12>:
  401580:	83 ec 1c             	sub    esp,0x1c
  401583:	8b 44 24 24          	mov    eax,DWORD PTR [esp+0x24]
  401587:	85 c0                	test   eax,eax
  401589:	74 15                	je     4015a0 <___dyn_tls_dtor@12+0x20>
  40158b:	83 f8 03             	cmp    eax,0x3
  40158e:	74 10                	je     4015a0 <___dyn_tls_dtor@12+0x20>
  401590:	b8 01 00 00 00       	mov    eax,0x1
  401595:	83 c4 1c             	add    esp,0x1c
  401598:	c2 0c 00             	ret    0xc
  40159b:	90                   	nop
  40159c:	8d 74 26 00          	lea    esi,[esi+eiz*1+0x0]
  4015a0:	8b 54 24 28          	mov    edx,DWORD PTR [esp+0x28]
  4015a4:	89 44 24 04          	mov    DWORD PTR [esp+0x4],eax
  4015a8:	8b 44 24 20          	mov    eax,DWORD PTR [esp+0x20]
  4015ac:	89 54 24 08          	mov    DWORD PTR [esp+0x8],edx
  4015b0:	89 04 24             	mov    DWORD PTR [esp],eax
  4015b3:	e8 18 0a 00 00       	call   401fd0 <___mingw_TLScallback>
  4015b8:	b8 01 00 00 00       	mov    eax,0x1
  4015bd:	83 c4 1c             	add    esp,0x1c
  4015c0:	c2 0c 00             	ret    0xc
  4015c3:	8d b6 00 00 00 00    	lea    esi,[esi+0x0]
  4015c9:	8d bc 27 00 00 00 00 	lea    edi,[edi+eiz*1+0x0]

004015d0 <___dyn_tls_init@12>:
  4015d0:	56                   	push   esi
  4015d1:	53                   	push   ebx
  4015d2:	83 ec 14             	sub    esp,0x14
  4015d5:	83 3d 40 d0 40 00 02 	cmp    DWORD PTR ds:0x40d040,0x2
  4015dc:	8b 44 24 24          	mov    eax,DWORD PTR [esp+0x24]
  4015e0:	74 0a                	je     4015ec <___dyn_tls_init@12+0x1c>
  4015e2:	c7 05 40 d0 40 00 02 	mov    DWORD PTR ds:0x40d040,0x2
  4015e9:	00 00 00 
  4015ec:	83 f8 02             	cmp    eax,0x2
  4015ef:	74 12                	je     401603 <___dyn_tls_init@12+0x33>
  4015f1:	83 f8 01             	cmp    eax,0x1
  4015f4:	74 42                	je     401638 <___dyn_tls_init@12+0x68>
  4015f6:	83 c4 14             	add    esp,0x14
  4015f9:	b8 01 00 00 00       	mov    eax,0x1
  4015fe:	5b                   	pop    ebx
  4015ff:	5e                   	pop    esi
  401600:	c2 0c 00             	ret    0xc
  401603:	be 14 f0 40 00       	mov    esi,0x40f014
  401608:	81 ee 14 f0 40 00    	sub    esi,0x40f014
  40160e:	c1 fe 02             	sar    esi,0x2
  401611:	85 f6                	test   esi,esi
  401613:	7e e1                	jle    4015f6 <___dyn_tls_init@12+0x26>
  401615:	31 db                	xor    ebx,ebx
  401617:	8b 04 9d 14 f0 40 00 	mov    eax,DWORD PTR [ebx*4+0x40f014]
  40161e:	85 c0                	test   eax,eax
  401620:	74 02                	je     401624 <___dyn_tls_init@12+0x54>
  401622:	ff d0                	call   eax
  401624:	83 c3 01             	add    ebx,0x1
  401627:	39 f3                	cmp    ebx,esi
  401629:	75 ec                	jne    401617 <___dyn_tls_init@12+0x47>
  40162b:	83 c4 14             	add    esp,0x14
  40162e:	b8 01 00 00 00       	mov    eax,0x1
  401633:	5b                   	pop    ebx
  401634:	5e                   	pop    esi
  401635:	c2 0c 00             	ret    0xc
  401638:	8b 44 24 28          	mov    eax,DWORD PTR [esp+0x28]
  40163c:	c7 44 24 04 01 00 00 	mov    DWORD PTR [esp+0x4],0x1
  401643:	00 
  401644:	89 44 24 08          	mov    DWORD PTR [esp+0x8],eax
  401648:	8b 44 24 20          	mov    eax,DWORD PTR [esp+0x20]
  40164c:	89 04 24             	mov    DWORD PTR [esp],eax
  40164f:	e8 7c 09 00 00       	call   401fd0 <___mingw_TLScallback>
  401654:	eb a0                	jmp    4015f6 <___dyn_tls_init@12+0x26>
  401656:	8d 76 00             	lea    esi,[esi+0x0]
  401659:	8d bc 27 00 00 00 00 	lea    edi,[edi+eiz*1+0x0]

00401660 <___tlregdtor>:
  401660:	31 c0                	xor    eax,eax
  401662:	c3                   	ret    
  401663:	90                   	nop
  401664:	90                   	nop
  401665:	90                   	nop
  401666:	90                   	nop
  401667:	90                   	nop
  401668:	90                   	nop
  401669:	90                   	nop
  40166a:	90                   	nop
  40166b:	90                   	nop
  40166c:	90                   	nop
  40166d:	90                   	nop
  40166e:	90                   	nop
  40166f:	90                   	nop

00401670 <__fpreset>:
  401670:	db e3                	fninit 
  401672:	c3                   	ret    
  401673:	90                   	nop
  401674:	90                   	nop
  401675:	90                   	nop
  401676:	90                   	nop
  401677:	90                   	nop
  401678:	90                   	nop
  401679:	90                   	nop
  40167a:	90                   	nop
  40167b:	90                   	nop
  40167c:	90                   	nop
  40167d:	90                   	nop
  40167e:	90                   	nop
  40167f:	90                   	nop

00401680 <___cpu_features_init>:
  401680:	9c                   	pushf  
  401681:	9c                   	pushf  
  401682:	58                   	pop    eax
  401683:	89 c2                	mov    edx,eax
  401685:	35 00 00 20 00       	xor    eax,0x200000
  40168a:	50                   	push   eax
  40168b:	9d                   	popf   
  40168c:	9c                   	pushf  
  40168d:	58                   	pop    eax
  40168e:	9d                   	popf   
  40168f:	31 d0                	xor    eax,edx
  401691:	a9 00 00 20 00       	test   eax,0x200000
  401696:	0f 84 a5 00 00 00    	je     401741 <___cpu_features_init+0xc1>
  40169c:	53                   	push   ebx
  40169d:	31 c0                	xor    eax,eax
  40169f:	0f a2                	cpuid  
  4016a1:	85 c0                	test   eax,eax
  4016a3:	0f 84 97 00 00 00    	je     401740 <___cpu_features_init+0xc0>
  4016a9:	b8 01 00 00 00       	mov    eax,0x1
  4016ae:	0f a2                	cpuid  
  4016b0:	f6 c6 01             	test   dh,0x1
  4016b3:	74 07                	je     4016bc <___cpu_features_init+0x3c>
  4016b5:	83 0d 34 d0 40 00 01 	or     DWORD PTR ds:0x40d034,0x1
  4016bc:	f6 c6 80             	test   dh,0x80
  4016bf:	74 07                	je     4016c8 <___cpu_features_init+0x48>
  4016c1:	83 0d 34 d0 40 00 02 	or     DWORD PTR ds:0x40d034,0x2
  4016c8:	f7 c2 00 00 80 00    	test   edx,0x800000
  4016ce:	74 07                	je     4016d7 <___cpu_features_init+0x57>
  4016d0:	83 0d 34 d0 40 00 04 	or     DWORD PTR ds:0x40d034,0x4
  4016d7:	f7 c2 00 00 00 01    	test   edx,0x1000000
  4016dd:	74 07                	je     4016e6 <___cpu_features_init+0x66>
  4016df:	83 0d 34 d0 40 00 08 	or     DWORD PTR ds:0x40d034,0x8
  4016e6:	f7 c2 00 00 00 02    	test   edx,0x2000000
  4016ec:	74 07                	je     4016f5 <___cpu_features_init+0x75>
  4016ee:	83 0d 34 d0 40 00 10 	or     DWORD PTR ds:0x40d034,0x10
  4016f5:	81 e2 00 00 00 04    	and    edx,0x4000000
  4016fb:	74 07                	je     401704 <___cpu_features_init+0x84>
  4016fd:	83 0d 34 d0 40 00 20 	or     DWORD PTR ds:0x40d034,0x20
  401704:	f6 c1 01             	test   cl,0x1
  401707:	74 07                	je     401710 <___cpu_features_init+0x90>
  401709:	83 0d 34 d0 40 00 40 	or     DWORD PTR ds:0x40d034,0x40
  401710:	80 e5 20             	and    ch,0x20
  401713:	75 2e                	jne    401743 <___cpu_features_init+0xc3>
  401715:	b8 00 00 00 80       	mov    eax,0x80000000
  40171a:	0f a2                	cpuid  
  40171c:	3d 00 00 00 80       	cmp    eax,0x80000000
  401721:	76 1d                	jbe    401740 <___cpu_features_init+0xc0>
  401723:	b8 01 00 00 80       	mov    eax,0x80000001
  401728:	0f a2                	cpuid  
  40172a:	85 d2                	test   edx,edx
  40172c:	78 22                	js     401750 <___cpu_features_init+0xd0>
  40172e:	81 e2 00 00 00 40    	and    edx,0x40000000
  401734:	74 0a                	je     401740 <___cpu_features_init+0xc0>
  401736:	81 0d 34 d0 40 00 00 	or     DWORD PTR ds:0x40d034,0x200
  40173d:	02 00 00 
  401740:	5b                   	pop    ebx
  401741:	f3 c3                	repz ret 
  401743:	81 0d 34 d0 40 00 80 	or     DWORD PTR ds:0x40d034,0x80
  40174a:	00 00 00 
  40174d:	eb c6                	jmp    401715 <___cpu_features_init+0x95>
  40174f:	90                   	nop
  401750:	81 0d 34 d0 40 00 00 	or     DWORD PTR ds:0x40d034,0x100
  401757:	01 00 00 
  40175a:	eb d2                	jmp    40172e <___cpu_features_init+0xae>
  40175c:	90                   	nop
  40175d:	90                   	nop
  40175e:	90                   	nop
  40175f:	90                   	nop

00401760 <__setargv>:
  401760:	55                   	push   ebp
  401761:	89 e5                	mov    ebp,esp
  401763:	57                   	push   edi
  401764:	56                   	push   esi
  401765:	53                   	push   ebx
  401766:	83 ec 4c             	sub    esp,0x4c
  401769:	f6 05 04 90 40 00 02 	test   BYTE PTR ds:0x409004,0x2
  401770:	0f 84 ba 02 00 00    	je     401a30 <__setargv+0x2d0>
  401776:	e8 0d 6a 00 00       	call   408188 <_GetCommandLineA@0>
  40177b:	89 65 c0             	mov    DWORD PTR [ebp-0x40],esp
  40177e:	89 04 24             	mov    DWORD PTR [esp],eax
  401781:	89 c6                	mov    esi,eax
  401783:	e8 28 69 00 00       	call   4080b0 <_strlen>
  401788:	8d 44 00 11          	lea    eax,[eax+eax*1+0x11]
  40178c:	83 e0 f0             	and    eax,0xfffffff0
  40178f:	e8 dc 08 00 00       	call   402070 <___chkstk_ms>
  401794:	29 c4                	sub    esp,eax
  401796:	8d 44 24 10          	lea    eax,[esp+0x10]
  40179a:	89 c2                	mov    edx,eax
  40179c:	89 45 c4             	mov    DWORD PTR [ebp-0x3c],eax
  40179f:	a1 04 90 40 00       	mov    eax,ds:0x409004
  4017a4:	c7 45 e4 00 00 00 00 	mov    DWORD PTR [ebp-0x1c],0x0
  4017ab:	c7 45 d0 00 00 00 00 	mov    DWORD PTR [ebp-0x30],0x0
  4017b2:	c7 45 cc 00 00 00 00 	mov    DWORD PTR [ebp-0x34],0x0
  4017b9:	83 e0 40             	and    eax,0x40
  4017bc:	83 f8 01             	cmp    eax,0x1
  4017bf:	19 c0                	sbb    eax,eax
  4017c1:	89 45 c8             	mov    DWORD PTR [ebp-0x38],eax
  4017c4:	31 c0                	xor    eax,eax
  4017c6:	81 65 c8 00 c0 ff ff 	and    DWORD PTR [ebp-0x38],0xffffc000
  4017cd:	81 45 c8 10 40 00 00 	add    DWORD PTR [ebp-0x38],0x4010
  4017d4:	89 55 d4             	mov    DWORD PTR [ebp-0x2c],edx
  4017d7:	83 c6 01             	add    esi,0x1
  4017da:	0f b6 5e ff          	movzx  ebx,BYTE PTR [esi-0x1]
  4017de:	0f be cb             	movsx  ecx,bl
  4017e1:	85 c9                	test   ecx,ecx
  4017e3:	74 7b                	je     401860 <__setargv+0x100>
  4017e5:	80 fb 3f             	cmp    bl,0x3f
  4017e8:	0f 84 13 01 00 00    	je     401901 <__setargv+0x1a1>
  4017ee:	0f 8f ec 00 00 00    	jg     4018e0 <__setargv+0x180>
  4017f4:	80 fb 27             	cmp    bl,0x27
  4017f7:	0f 84 e3 01 00 00    	je     4019e0 <__setargv+0x280>
  4017fd:	80 fb 2a             	cmp    bl,0x2a
  401800:	0f 84 fb 00 00 00    	je     401901 <__setargv+0x1a1>
  401806:	80 fb 22             	cmp    bl,0x22
  401809:	0f 85 36 01 00 00    	jne    401945 <__setargv+0x1e5>
  40180f:	89 c3                	mov    ebx,eax
  401811:	d1 fb                	sar    ebx,1
  401813:	0f 84 3e 02 00 00    	je     401a57 <__setargv+0x2f7>
  401819:	8b 55 d4             	mov    edx,DWORD PTR [ebp-0x2c]
  40181c:	01 d3                	add    ebx,edx
  40181e:	66 90                	xchg   ax,ax
  401820:	83 c2 01             	add    edx,0x1
  401823:	39 da                	cmp    edx,ebx
  401825:	c6 42 ff 5c          	mov    BYTE PTR [edx-0x1],0x5c
  401829:	75 f5                	jne    401820 <__setargv+0xc0>
  40182b:	a8 01                	test   al,0x1
  40182d:	0f 85 93 00 00 00    	jne    4018c6 <__setargv+0x166>
  401833:	83 7d d0 27          	cmp    DWORD PTR [ebp-0x30],0x27
  401837:	0f 84 89 00 00 00    	je     4018c6 <__setargv+0x166>
  40183d:	83 c6 01             	add    esi,0x1
  401840:	31 c0                	xor    eax,eax
  401842:	89 5d d4             	mov    DWORD PTR [ebp-0x2c],ebx
  401845:	0f b6 5e ff          	movzx  ebx,BYTE PTR [esi-0x1]
  401849:	31 4d d0             	xor    DWORD PTR [ebp-0x30],ecx
  40184c:	c7 45 cc 01 00 00 00 	mov    DWORD PTR [ebp-0x34],0x1
  401853:	0f be cb             	movsx  ecx,bl
  401856:	85 c9                	test   ecx,ecx
  401858:	75 8b                	jne    4017e5 <__setargv+0x85>
  40185a:	8d b6 00 00 00 00    	lea    esi,[esi+0x0]
  401860:	85 c0                	test   eax,eax
  401862:	8b 55 d4             	mov    edx,DWORD PTR [ebp-0x2c]
  401865:	0f 84 f4 01 00 00    	je     401a5f <__setargv+0x2ff>
  40186b:	01 d0                	add    eax,edx
  40186d:	8d 76 00             	lea    esi,[esi+0x0]
  401870:	83 c2 01             	add    edx,0x1
  401873:	39 c2                	cmp    edx,eax
  401875:	c6 42 ff 5c          	mov    BYTE PTR [edx-0x1],0x5c
  401879:	75 f5                	jne    401870 <__setargv+0x110>
  40187b:	8b 55 cc             	mov    edx,DWORD PTR [ebp-0x34]
  40187e:	85 d2                	test   edx,edx
  401880:	75 05                	jne    401887 <__setargv+0x127>
  401882:	39 45 c4             	cmp    DWORD PTR [ebp-0x3c],eax
  401885:	73 24                	jae    4018ab <__setargv+0x14b>
  401887:	c6 00 00             	mov    BYTE PTR [eax],0x0
  40188a:	8d 45 d8             	lea    eax,[ebp-0x28]
  40188d:	89 44 24 0c          	mov    DWORD PTR [esp+0xc],eax
  401891:	c7 44 24 08 00 00 00 	mov    DWORD PTR [esp+0x8],0x0
  401898:	00 
  401899:	8b 45 c8             	mov    eax,DWORD PTR [ebp-0x38]
  40189c:	89 44 24 04          	mov    DWORD PTR [esp+0x4],eax
  4018a0:	8b 45 c4             	mov    eax,DWORD PTR [ebp-0x3c]
  4018a3:	89 04 24             	mov    DWORD PTR [esp],eax
  4018a6:	e8 f5 13 00 00       	call   402ca0 <___mingw_glob>
  4018ab:	8b 45 dc             	mov    eax,DWORD PTR [ebp-0x24]
  4018ae:	a3 04 d0 40 00       	mov    ds:0x40d004,eax
  4018b3:	8b 45 e0             	mov    eax,DWORD PTR [ebp-0x20]
  4018b6:	a3 00 d0 40 00       	mov    ds:0x40d000,eax
  4018bb:	8b 65 c0             	mov    esp,DWORD PTR [ebp-0x40]
  4018be:	8d 65 f4             	lea    esp,[ebp-0xc]
  4018c1:	5b                   	pop    ebx
  4018c2:	5e                   	pop    esi
  4018c3:	5f                   	pop    edi
  4018c4:	5d                   	pop    ebp
  4018c5:	c3                   	ret    
  4018c6:	8d 43 01             	lea    eax,[ebx+0x1]
  4018c9:	89 45 d4             	mov    DWORD PTR [ebp-0x2c],eax
  4018cc:	31 c0                	xor    eax,eax
  4018ce:	c6 03 22             	mov    BYTE PTR [ebx],0x22
  4018d1:	c7 45 cc 01 00 00 00 	mov    DWORD PTR [ebp-0x34],0x1
  4018d8:	e9 fa fe ff ff       	jmp    4017d7 <__setargv+0x77>
  4018dd:	8d 76 00             	lea    esi,[esi+0x0]
  4018e0:	80 fb 5c             	cmp    bl,0x5c
  4018e3:	0f 84 3f 01 00 00    	je     401a28 <__setargv+0x2c8>
  4018e9:	80 fb 7f             	cmp    bl,0x7f
  4018ec:	74 13                	je     401901 <__setargv+0x1a1>
  4018ee:	80 fb 5b             	cmp    bl,0x5b
  4018f1:	75 52                	jne    401945 <__setargv+0x1e5>
  4018f3:	f6 05 04 90 40 00 20 	test   BYTE PTR ds:0x409004,0x20
  4018fa:	bf 01 00 00 00       	mov    edi,0x1
  4018ff:	74 0a                	je     40190b <__setargv+0x1ab>
  401901:	8b 55 d0             	mov    edx,DWORD PTR [ebp-0x30]
  401904:	85 d2                	test   edx,edx
  401906:	0f 95 c2             	setne  dl
  401909:	89 d7                	mov    edi,edx
  40190b:	85 c0                	test   eax,eax
  40190d:	0f 84 34 01 00 00    	je     401a47 <__setargv+0x2e7>
  401913:	8b 55 d4             	mov    edx,DWORD PTR [ebp-0x2c]
  401916:	01 d0                	add    eax,edx
  401918:	83 c2 01             	add    edx,0x1
  40191b:	39 c2                	cmp    edx,eax
  40191d:	c6 42 ff 5c          	mov    BYTE PTR [edx-0x1],0x5c
  401921:	75 f5                	jne    401918 <__setargv+0x1b8>
  401923:	89 fa                	mov    edx,edi
  401925:	84 d2                	test   dl,dl
  401927:	0f 85 a3 00 00 00    	jne    4019d0 <__setargv+0x270>
  40192d:	83 f9 7f             	cmp    ecx,0x7f
  401930:	0f 84 9a 00 00 00    	je     4019d0 <__setargv+0x270>
  401936:	8d 48 01             	lea    ecx,[eax+0x1]
  401939:	88 18                	mov    BYTE PTR [eax],bl
  40193b:	31 c0                	xor    eax,eax
  40193d:	89 4d d4             	mov    DWORD PTR [ebp-0x2c],ecx
  401940:	e9 92 fe ff ff       	jmp    4017d7 <__setargv+0x77>
  401945:	8b 7d d4             	mov    edi,DWORD PTR [ebp-0x2c]
  401948:	8b 55 d4             	mov    edx,DWORD PTR [ebp-0x2c]
  40194b:	01 c7                	add    edi,eax
  40194d:	85 c0                	test   eax,eax
  40194f:	0f 84 fa 00 00 00    	je     401a4f <__setargv+0x2ef>
  401955:	83 c2 01             	add    edx,0x1
  401958:	39 fa                	cmp    edx,edi
  40195a:	c6 42 ff 5c          	mov    BYTE PTR [edx-0x1],0x5c
  40195e:	75 f5                	jne    401955 <__setargv+0x1f5>
  401960:	8b 45 d0             	mov    eax,DWORD PTR [ebp-0x30]
  401963:	85 c0                	test   eax,eax
  401965:	75 59                	jne    4019c0 <__setargv+0x260>
  401967:	89 0c 24             	mov    DWORD PTR [esp],ecx
  40196a:	e8 49 67 00 00       	call   4080b8 <_isspace>
  40196f:	85 c0                	test   eax,eax
  401971:	74 4d                	je     4019c0 <__setargv+0x260>
  401973:	8b 4d cc             	mov    ecx,DWORD PTR [ebp-0x34]
  401976:	85 c9                	test   ecx,ecx
  401978:	75 09                	jne    401983 <__setargv+0x223>
  40197a:	39 7d c4             	cmp    DWORD PTR [ebp-0x3c],edi
  40197d:	0f 83 ba 00 00 00    	jae    401a3d <__setargv+0x2dd>
  401983:	8d 45 d8             	lea    eax,[ebp-0x28]
  401986:	c6 07 00             	mov    BYTE PTR [edi],0x0
  401989:	89 44 24 0c          	mov    DWORD PTR [esp+0xc],eax
  40198d:	c7 44 24 08 00 00 00 	mov    DWORD PTR [esp+0x8],0x0
  401994:	00 
  401995:	8b 45 c8             	mov    eax,DWORD PTR [ebp-0x38]
  401998:	89 44 24 04          	mov    DWORD PTR [esp+0x4],eax
  40199c:	8b 7d c4             	mov    edi,DWORD PTR [ebp-0x3c]
  40199f:	89 3c 24             	mov    DWORD PTR [esp],edi
  4019a2:	e8 f9 12 00 00       	call   402ca0 <___mingw_glob>
  4019a7:	31 c0                	xor    eax,eax
  4019a9:	83 4d c8 01          	or     DWORD PTR [ebp-0x38],0x1
  4019ad:	89 7d d4             	mov    DWORD PTR [ebp-0x2c],edi
  4019b0:	c7 45 cc 00 00 00 00 	mov    DWORD PTR [ebp-0x34],0x0
  4019b7:	e9 1b fe ff ff       	jmp    4017d7 <__setargv+0x77>
  4019bc:	8d 74 26 00          	lea    esi,[esi+eiz*1+0x0]
  4019c0:	8d 47 01             	lea    eax,[edi+0x1]
  4019c3:	89 45 d4             	mov    DWORD PTR [ebp-0x2c],eax
  4019c6:	31 c0                	xor    eax,eax
  4019c8:	88 1f                	mov    BYTE PTR [edi],bl
  4019ca:	e9 08 fe ff ff       	jmp    4017d7 <__setargv+0x77>
  4019cf:	90                   	nop
  4019d0:	c6 00 7f             	mov    BYTE PTR [eax],0x7f
  4019d3:	83 c0 01             	add    eax,0x1
  4019d6:	e9 5b ff ff ff       	jmp    401936 <__setargv+0x1d6>
  4019db:	90                   	nop
  4019dc:	8d 74 26 00          	lea    esi,[esi+eiz*1+0x0]
  4019e0:	f6 05 04 90 40 00 10 	test   BYTE PTR ds:0x409004,0x10
  4019e7:	0f 84 58 ff ff ff    	je     401945 <__setargv+0x1e5>
  4019ed:	89 c3                	mov    ebx,eax
  4019ef:	d1 fb                	sar    ebx,1
  4019f1:	74 73                	je     401a66 <__setargv+0x306>
  4019f3:	8b 55 d4             	mov    edx,DWORD PTR [ebp-0x2c]
  4019f6:	01 d3                	add    ebx,edx
  4019f8:	83 c2 01             	add    edx,0x1
  4019fb:	39 da                	cmp    edx,ebx
  4019fd:	c6 42 ff 5c          	mov    BYTE PTR [edx-0x1],0x5c
  401a01:	75 f5                	jne    4019f8 <__setargv+0x298>
  401a03:	a8 01                	test   al,0x1
  401a05:	75 0a                	jne    401a11 <__setargv+0x2b1>
  401a07:	83 7d d0 22          	cmp    DWORD PTR [ebp-0x30],0x22
  401a0b:	0f 85 2c fe ff ff    	jne    40183d <__setargv+0xdd>
  401a11:	8d 43 01             	lea    eax,[ebx+0x1]
  401a14:	89 45 d4             	mov    DWORD PTR [ebp-0x2c],eax
  401a17:	31 c0                	xor    eax,eax
  401a19:	c6 03 27             	mov    BYTE PTR [ebx],0x27
  401a1c:	c7 45 cc 01 00 00 00 	mov    DWORD PTR [ebp-0x34],0x1
  401a23:	e9 af fd ff ff       	jmp    4017d7 <__setargv+0x77>
  401a28:	83 c0 01             	add    eax,0x1
  401a2b:	e9 a7 fd ff ff       	jmp    4017d7 <__setargv+0x77>
  401a30:	e8 2b f8 ff ff       	call   401260 <__mingw32_init_mainargs>
  401a35:	8d 65 f4             	lea    esp,[ebp-0xc]
  401a38:	5b                   	pop    ebx
  401a39:	5e                   	pop    esi
  401a3a:	5f                   	pop    edi
  401a3b:	5d                   	pop    ebp
  401a3c:	c3                   	ret    
  401a3d:	89 7d d4             	mov    DWORD PTR [ebp-0x2c],edi
  401a40:	31 c0                	xor    eax,eax
  401a42:	e9 90 fd ff ff       	jmp    4017d7 <__setargv+0x77>
  401a47:	8b 45 d4             	mov    eax,DWORD PTR [ebp-0x2c]
  401a4a:	e9 d4 fe ff ff       	jmp    401923 <__setargv+0x1c3>
  401a4f:	8b 7d d4             	mov    edi,DWORD PTR [ebp-0x2c]
  401a52:	e9 09 ff ff ff       	jmp    401960 <__setargv+0x200>
  401a57:	8b 5d d4             	mov    ebx,DWORD PTR [ebp-0x2c]
  401a5a:	e9 cc fd ff ff       	jmp    40182b <__setargv+0xcb>
  401a5f:	89 d0                	mov    eax,edx
  401a61:	e9 15 fe ff ff       	jmp    40187b <__setargv+0x11b>
  401a66:	8b 5d d4             	mov    ebx,DWORD PTR [ebp-0x2c]
  401a69:	eb 98                	jmp    401a03 <__setargv+0x2a3>
  401a6b:	90                   	nop
  401a6c:	90                   	nop
  401a6d:	90                   	nop
  401a6e:	90                   	nop
  401a6f:	90                   	nop

00401a70 <___report_error>:
  401a70:	56                   	push   esi
  401a71:	53                   	push   ebx
  401a72:	83 ec 14             	sub    esp,0x14
  401a75:	a1 cc e1 40 00       	mov    eax,ds:0x40e1cc
  401a7a:	c7 44 24 08 17 00 00 	mov    DWORD PTR [esp+0x8],0x17
  401a81:	00 
  401a82:	8d 74 24 24          	lea    esi,[esp+0x24]
  401a86:	c7 44 24 04 01 00 00 	mov    DWORD PTR [esp+0x4],0x1
  401a8d:	00 
  401a8e:	c7 04 24 84 a0 40 00 	mov    DWORD PTR [esp],0x40a084
  401a95:	8d 58 40             	lea    ebx,[eax+0x40]
  401a98:	89 5c 24 0c          	mov    DWORD PTR [esp+0xc],ebx
  401a9c:	e8 1f 66 00 00       	call   4080c0 <_fwrite>
  401aa1:	8b 44 24 20          	mov    eax,DWORD PTR [esp+0x20]
  401aa5:	89 74 24 08          	mov    DWORD PTR [esp+0x8],esi
  401aa9:	89 1c 24             	mov    DWORD PTR [esp],ebx
  401aac:	89 44 24 04          	mov    DWORD PTR [esp+0x4],eax
  401ab0:	e8 13 66 00 00       	call   4080c8 <_vfprintf>
  401ab5:	e8 16 66 00 00       	call   4080d0 <_abort>
  401aba:	8d b6 00 00 00 00    	lea    esi,[esi+0x0]

00401ac0 <___write_memory.part.0>:
  401ac0:	55                   	push   ebp
  401ac1:	89 e5                	mov    ebp,esp
  401ac3:	57                   	push   edi
  401ac4:	89 cf                	mov    edi,ecx
  401ac6:	56                   	push   esi
  401ac7:	89 d6                	mov    esi,edx
  401ac9:	53                   	push   ebx
  401aca:	89 c3                	mov    ebx,eax
  401acc:	83 ec 4c             	sub    esp,0x4c
  401acf:	8d 45 cc             	lea    eax,[ebp-0x34]
  401ad2:	c7 44 24 08 1c 00 00 	mov    DWORD PTR [esp+0x8],0x1c
  401ad9:	00 
  401ada:	89 44 24 04          	mov    DWORD PTR [esp+0x4],eax
  401ade:	89 1c 24             	mov    DWORD PTR [esp],ebx
  401ae1:	e8 aa 66 00 00       	call   408190 <_VirtualQuery@12>
  401ae6:	83 ec 0c             	sub    esp,0xc
  401ae9:	85 c0                	test   eax,eax
  401aeb:	0f 84 9a 00 00 00    	je     401b8b <___write_memory.part.0+0xcb>
  401af1:	8b 45 e0             	mov    eax,DWORD PTR [ebp-0x20]
  401af4:	83 f8 04             	cmp    eax,0x4
  401af7:	75 18                	jne    401b11 <___write_memory.part.0+0x51>
  401af9:	89 7c 24 08          	mov    DWORD PTR [esp+0x8],edi
  401afd:	89 74 24 04          	mov    DWORD PTR [esp+0x4],esi
  401b01:	89 1c 24             	mov    DWORD PTR [esp],ebx
  401b04:	e8 cf 65 00 00       	call   4080d8 <_memcpy>
  401b09:	8d 65 f4             	lea    esp,[ebp-0xc]
  401b0c:	5b                   	pop    ebx
  401b0d:	5e                   	pop    esi
  401b0e:	5f                   	pop    edi
  401b0f:	5d                   	pop    ebp
  401b10:	c3                   	ret    
  401b11:	83 f8 40             	cmp    eax,0x40
  401b14:	74 e3                	je     401af9 <___write_memory.part.0+0x39>
  401b16:	8b 45 d8             	mov    eax,DWORD PTR [ebp-0x28]
  401b19:	8d 55 c8             	lea    edx,[ebp-0x38]
  401b1c:	89 54 24 0c          	mov    DWORD PTR [esp+0xc],edx
  401b20:	c7 44 24 08 40 00 00 	mov    DWORD PTR [esp+0x8],0x40
  401b27:	00 
  401b28:	89 55 c4             	mov    DWORD PTR [ebp-0x3c],edx
  401b2b:	89 44 24 04          	mov    DWORD PTR [esp+0x4],eax
  401b2f:	8b 45 cc             	mov    eax,DWORD PTR [ebp-0x34]
  401b32:	89 04 24             	mov    DWORD PTR [esp],eax
  401b35:	e8 5e 66 00 00       	call   408198 <_VirtualProtect@16>
  401b3a:	8b 4d e0             	mov    ecx,DWORD PTR [ebp-0x20]
  401b3d:	89 4d c0             	mov    DWORD PTR [ebp-0x40],ecx
  401b40:	83 ec 10             	sub    esp,0x10
  401b43:	89 7c 24 08          	mov    DWORD PTR [esp+0x8],edi
  401b47:	89 74 24 04          	mov    DWORD PTR [esp+0x4],esi
  401b4b:	89 1c 24             	mov    DWORD PTR [esp],ebx
  401b4e:	e8 85 65 00 00       	call   4080d8 <_memcpy>
  401b53:	8b 4d c0             	mov    ecx,DWORD PTR [ebp-0x40]
  401b56:	83 f9 04             	cmp    ecx,0x4
  401b59:	74 ae                	je     401b09 <___write_memory.part.0+0x49>
  401b5b:	83 f9 40             	cmp    ecx,0x40
  401b5e:	74 a9                	je     401b09 <___write_memory.part.0+0x49>
  401b60:	8b 45 c8             	mov    eax,DWORD PTR [ebp-0x38]
  401b63:	8b 55 c4             	mov    edx,DWORD PTR [ebp-0x3c]
  401b66:	89 44 24 08          	mov    DWORD PTR [esp+0x8],eax
  401b6a:	8b 45 d8             	mov    eax,DWORD PTR [ebp-0x28]
  401b6d:	89 54 24 0c          	mov    DWORD PTR [esp+0xc],edx
  401b71:	89 44 24 04          	mov    DWORD PTR [esp+0x4],eax
  401b75:	8b 45 cc             	mov    eax,DWORD PTR [ebp-0x34]
  401b78:	89 04 24             	mov    DWORD PTR [esp],eax
  401b7b:	e8 18 66 00 00       	call   408198 <_VirtualProtect@16>
  401b80:	83 ec 10             	sub    esp,0x10
  401b83:	8d 65 f4             	lea    esp,[ebp-0xc]
  401b86:	5b                   	pop    ebx
  401b87:	5e                   	pop    esi
  401b88:	5f                   	pop    edi
  401b89:	5d                   	pop    ebp
  401b8a:	c3                   	ret    
  401b8b:	89 5c 24 08          	mov    DWORD PTR [esp+0x8],ebx
  401b8f:	c7 44 24 04 1c 00 00 	mov    DWORD PTR [esp+0x4],0x1c
  401b96:	00 
  401b97:	c7 04 24 9c a0 40 00 	mov    DWORD PTR [esp],0x40a09c
  401b9e:	e8 cd fe ff ff       	call   401a70 <___report_error>
  401ba3:	8d b6 00 00 00 00    	lea    esi,[esi+0x0]
  401ba9:	8d bc 27 00 00 00 00 	lea    edi,[edi+eiz*1+0x0]

00401bb0 <__pei386_runtime_relocator>:
  401bb0:	a1 38 d0 40 00       	mov    eax,ds:0x40d038
  401bb5:	85 c0                	test   eax,eax
  401bb7:	74 07                	je     401bc0 <__pei386_runtime_relocator+0x10>
  401bb9:	c3                   	ret    
  401bba:	8d b6 00 00 00 00    	lea    esi,[esi+0x0]
  401bc0:	b8 40 a7 40 00       	mov    eax,0x40a740
  401bc5:	2d 40 a7 40 00       	sub    eax,0x40a740
  401bca:	83 f8 07             	cmp    eax,0x7
  401bcd:	c7 05 38 d0 40 00 01 	mov    DWORD PTR ds:0x40d038,0x1
  401bd4:	00 00 00 
  401bd7:	7e e0                	jle    401bb9 <__pei386_runtime_relocator+0x9>
  401bd9:	57                   	push   edi
  401bda:	56                   	push   esi
  401bdb:	53                   	push   ebx
  401bdc:	83 ec 20             	sub    esp,0x20
  401bdf:	83 f8 0b             	cmp    eax,0xb
  401be2:	0f 8e de 00 00 00    	jle    401cc6 <__pei386_runtime_relocator+0x116>
  401be8:	8b 35 40 a7 40 00    	mov    esi,DWORD PTR ds:0x40a740
  401bee:	85 f6                	test   esi,esi
  401bf0:	0f 85 8a 00 00 00    	jne    401c80 <__pei386_runtime_relocator+0xd0>
  401bf6:	8b 1d 44 a7 40 00    	mov    ebx,DWORD PTR ds:0x40a744
  401bfc:	85 db                	test   ebx,ebx
  401bfe:	0f 85 7c 00 00 00    	jne    401c80 <__pei386_runtime_relocator+0xd0>
  401c04:	8b 0d 48 a7 40 00    	mov    ecx,DWORD PTR ds:0x40a748
  401c0a:	bb 4c a7 40 00       	mov    ebx,0x40a74c
  401c0f:	85 c9                	test   ecx,ecx
  401c11:	0f 84 b4 00 00 00    	je     401ccb <__pei386_runtime_relocator+0x11b>
  401c17:	bb 40 a7 40 00       	mov    ebx,0x40a740
  401c1c:	8b 43 08             	mov    eax,DWORD PTR [ebx+0x8]
  401c1f:	83 f8 01             	cmp    eax,0x1
  401c22:	0f 85 49 01 00 00    	jne    401d71 <__pei386_runtime_relocator+0x1c1>
  401c28:	83 c3 0c             	add    ebx,0xc
  401c2b:	81 fb 40 a7 40 00    	cmp    ebx,0x40a740
  401c31:	0f 83 88 00 00 00    	jae    401cbf <__pei386_runtime_relocator+0x10f>
  401c37:	0f b6 53 08          	movzx  edx,BYTE PTR [ebx+0x8]
  401c3b:	8b 73 04             	mov    esi,DWORD PTR [ebx+0x4]
  401c3e:	8b 0b                	mov    ecx,DWORD PTR [ebx]
  401c40:	83 fa 10             	cmp    edx,0x10
  401c43:	8d 86 00 00 40 00    	lea    eax,[esi+0x400000]
  401c49:	8b b9 00 00 40 00    	mov    edi,DWORD PTR [ecx+0x400000]
  401c4f:	0f 84 8b 00 00 00    	je     401ce0 <__pei386_runtime_relocator+0x130>
  401c55:	83 fa 20             	cmp    edx,0x20
  401c58:	0f 84 f2 00 00 00    	je     401d50 <__pei386_runtime_relocator+0x1a0>
  401c5e:	83 fa 08             	cmp    edx,0x8
  401c61:	0f 84 af 00 00 00    	je     401d16 <__pei386_runtime_relocator+0x166>
  401c67:	89 54 24 04          	mov    DWORD PTR [esp+0x4],edx
  401c6b:	c7 04 24 04 a1 40 00 	mov    DWORD PTR [esp],0x40a104
  401c72:	c7 44 24 1c 00 00 00 	mov    DWORD PTR [esp+0x1c],0x0
  401c79:	00 
  401c7a:	e8 f1 fd ff ff       	call   401a70 <___report_error>
  401c7f:	90                   	nop
  401c80:	bb 40 a7 40 00       	mov    ebx,0x40a740
  401c85:	81 fb 40 a7 40 00    	cmp    ebx,0x40a740
  401c8b:	73 32                	jae    401cbf <__pei386_runtime_relocator+0x10f>
  401c8d:	8d 76 00             	lea    esi,[esi+0x0]
  401c90:	8b 53 04             	mov    edx,DWORD PTR [ebx+0x4]
  401c93:	b9 04 00 00 00       	mov    ecx,0x4
  401c98:	83 c3 08             	add    ebx,0x8
  401c9b:	8d 82 00 00 40 00    	lea    eax,[edx+0x400000]
  401ca1:	8b 92 00 00 40 00    	mov    edx,DWORD PTR [edx+0x400000]
  401ca7:	03 53 f8             	add    edx,DWORD PTR [ebx-0x8]
  401caa:	89 54 24 1c          	mov    DWORD PTR [esp+0x1c],edx
  401cae:	8d 54 24 1c          	lea    edx,[esp+0x1c]
  401cb2:	e8 09 fe ff ff       	call   401ac0 <___write_memory.part.0>
  401cb7:	81 fb 40 a7 40 00    	cmp    ebx,0x40a740
  401cbd:	72 d1                	jb     401c90 <__pei386_runtime_relocator+0xe0>
  401cbf:	83 c4 20             	add    esp,0x20
  401cc2:	5b                   	pop    ebx
  401cc3:	5e                   	pop    esi
  401cc4:	5f                   	pop    edi
  401cc5:	c3                   	ret    
  401cc6:	bb 40 a7 40 00       	mov    ebx,0x40a740
  401ccb:	8b 13                	mov    edx,DWORD PTR [ebx]
  401ccd:	85 d2                	test   edx,edx
  401ccf:	75 b4                	jne    401c85 <__pei386_runtime_relocator+0xd5>
  401cd1:	8b 43 04             	mov    eax,DWORD PTR [ebx+0x4]
  401cd4:	85 c0                	test   eax,eax
  401cd6:	0f 84 40 ff ff ff    	je     401c1c <__pei386_runtime_relocator+0x6c>
  401cdc:	eb a7                	jmp    401c85 <__pei386_runtime_relocator+0xd5>
  401cde:	66 90                	xchg   ax,ax
  401ce0:	0f b7 b6 00 00 40 00 	movzx  esi,WORD PTR [esi+0x400000]
  401ce7:	66 85 f6             	test   si,si
  401cea:	0f b7 d6             	movzx  edx,si
  401ced:	79 06                	jns    401cf5 <__pei386_runtime_relocator+0x145>
  401cef:	81 ca 00 00 ff ff    	or     edx,0xffff0000
  401cf5:	29 ca                	sub    edx,ecx
  401cf7:	b9 02 00 00 00       	mov    ecx,0x2
  401cfc:	81 ea 00 00 40 00    	sub    edx,0x400000
  401d02:	01 fa                	add    edx,edi
  401d04:	89 54 24 1c          	mov    DWORD PTR [esp+0x1c],edx
  401d08:	8d 54 24 1c          	lea    edx,[esp+0x1c]
  401d0c:	e8 af fd ff ff       	call   401ac0 <___write_memory.part.0>
  401d11:	e9 12 ff ff ff       	jmp    401c28 <__pei386_runtime_relocator+0x78>
  401d16:	0f b6 10             	movzx  edx,BYTE PTR [eax]
  401d19:	84 d2                	test   dl,dl
  401d1b:	0f b6 f2             	movzx  esi,dl
  401d1e:	79 06                	jns    401d26 <__pei386_runtime_relocator+0x176>
  401d20:	81 ce 00 ff ff ff    	or     esi,0xffffff00
  401d26:	81 ee 00 00 40 00    	sub    esi,0x400000
  401d2c:	89 f2                	mov    edx,esi
  401d2e:	29 ca                	sub    edx,ecx
  401d30:	b9 01 00 00 00       	mov    ecx,0x1
  401d35:	01 fa                	add    edx,edi
  401d37:	89 54 24 1c          	mov    DWORD PTR [esp+0x1c],edx
  401d3b:	8d 54 24 1c          	lea    edx,[esp+0x1c]
  401d3f:	e8 7c fd ff ff       	call   401ac0 <___write_memory.part.0>
  401d44:	e9 df fe ff ff       	jmp    401c28 <__pei386_runtime_relocator+0x78>
  401d49:	8d b4 26 00 00 00 00 	lea    esi,[esi+eiz*1+0x0]
  401d50:	81 c1 00 00 40 00    	add    ecx,0x400000
  401d56:	29 cf                	sub    edi,ecx
  401d58:	b9 04 00 00 00       	mov    ecx,0x4
  401d5d:	03 38                	add    edi,DWORD PTR [eax]
  401d5f:	8d 54 24 1c          	lea    edx,[esp+0x1c]
  401d63:	89 7c 24 1c          	mov    DWORD PTR [esp+0x1c],edi
  401d67:	e8 54 fd ff ff       	call   401ac0 <___write_memory.part.0>
  401d6c:	e9 b7 fe ff ff       	jmp    401c28 <__pei386_runtime_relocator+0x78>
  401d71:	89 44 24 04          	mov    DWORD PTR [esp+0x4],eax
  401d75:	c7 04 24 d0 a0 40 00 	mov    DWORD PTR [esp],0x40a0d0
  401d7c:	e8 ef fc ff ff       	call   401a70 <___report_error>
  401d81:	90                   	nop
  401d82:	90                   	nop
  401d83:	90                   	nop
  401d84:	90                   	nop
  401d85:	90                   	nop
  401d86:	90                   	nop
  401d87:	90                   	nop
  401d88:	90                   	nop
  401d89:	90                   	nop
  401d8a:	90                   	nop
  401d8b:	90                   	nop
  401d8c:	90                   	nop
  401d8d:	90                   	nop
  401d8e:	90                   	nop
  401d8f:	90                   	nop

00401d90 <___do_global_dtors>:
  401d90:	a1 08 90 40 00       	mov    eax,ds:0x409008
  401d95:	8b 00                	mov    eax,DWORD PTR [eax]
  401d97:	85 c0                	test   eax,eax
  401d99:	74 1f                	je     401dba <___do_global_dtors+0x2a>
  401d9b:	83 ec 0c             	sub    esp,0xc
  401d9e:	66 90                	xchg   ax,ax
  401da0:	ff d0                	call   eax
  401da2:	a1 08 90 40 00       	mov    eax,ds:0x409008
  401da7:	8d 50 04             	lea    edx,[eax+0x4]
  401daa:	8b 40 04             	mov    eax,DWORD PTR [eax+0x4]
  401dad:	89 15 08 90 40 00    	mov    DWORD PTR ds:0x409008,edx
  401db3:	85 c0                	test   eax,eax
  401db5:	75 e9                	jne    401da0 <___do_global_dtors+0x10>
  401db7:	83 c4 0c             	add    esp,0xc
  401dba:	f3 c3                	repz ret 
  401dbc:	8d 74 26 00          	lea    esi,[esi+eiz*1+0x0]

00401dc0 <___do_global_ctors>:
  401dc0:	53                   	push   ebx
  401dc1:	83 ec 18             	sub    esp,0x18
  401dc4:	8b 1d 20 85 40 00    	mov    ebx,DWORD PTR ds:0x408520
  401dca:	83 fb ff             	cmp    ebx,0xffffffff
  401dcd:	74 24                	je     401df3 <___do_global_ctors+0x33>
  401dcf:	85 db                	test   ebx,ebx
  401dd1:	74 0f                	je     401de2 <___do_global_ctors+0x22>
  401dd3:	ff 14 9d 20 85 40 00 	call   DWORD PTR [ebx*4+0x408520]
  401dda:	83 eb 01             	sub    ebx,0x1
  401ddd:	8d 76 00             	lea    esi,[esi+0x0]
  401de0:	75 f1                	jne    401dd3 <___do_global_ctors+0x13>
  401de2:	c7 04 24 90 1d 40 00 	mov    DWORD PTR [esp],0x401d90
  401de9:	e8 f2 f4 ff ff       	call   4012e0 <_atexit>
  401dee:	83 c4 18             	add    esp,0x18
  401df1:	5b                   	pop    ebx
  401df2:	c3                   	ret    
  401df3:	31 db                	xor    ebx,ebx
  401df5:	eb 02                	jmp    401df9 <___do_global_ctors+0x39>
  401df7:	89 c3                	mov    ebx,eax
  401df9:	8d 43 01             	lea    eax,[ebx+0x1]
  401dfc:	8b 14 85 20 85 40 00 	mov    edx,DWORD PTR [eax*4+0x408520]
  401e03:	85 d2                	test   edx,edx
  401e05:	75 f0                	jne    401df7 <___do_global_ctors+0x37>
  401e07:	eb c6                	jmp    401dcf <___do_global_ctors+0xf>
  401e09:	8d b4 26 00 00 00 00 	lea    esi,[esi+eiz*1+0x0]

00401e10 <___main>:
  401e10:	8b 0d 3c d0 40 00    	mov    ecx,DWORD PTR ds:0x40d03c
  401e16:	85 c9                	test   ecx,ecx
  401e18:	74 06                	je     401e20 <___main+0x10>
  401e1a:	f3 c3                	repz ret 
  401e1c:	8d 74 26 00          	lea    esi,[esi+eiz*1+0x0]
  401e20:	c7 05 3c d0 40 00 01 	mov    DWORD PTR ds:0x40d03c,0x1
  401e27:	00 00 00 
  401e2a:	eb 94                	jmp    401dc0 <___do_global_ctors>
  401e2c:	90                   	nop
  401e2d:	90                   	nop
  401e2e:	90                   	nop
  401e2f:	90                   	nop

00401e30 <___mingwthr_run_key_dtors.part.0>:
  401e30:	55                   	push   ebp
  401e31:	89 e5                	mov    ebp,esp
  401e33:	56                   	push   esi
  401e34:	53                   	push   ebx
  401e35:	83 ec 10             	sub    esp,0x10
  401e38:	c7 04 24 4c d0 40 00 	mov    DWORD PTR [esp],0x40d04c
  401e3f:	e8 5c 63 00 00       	call   4081a0 <_EnterCriticalSection@4>
  401e44:	8b 1d 44 d0 40 00    	mov    ebx,DWORD PTR ds:0x40d044
  401e4a:	83 ec 04             	sub    esp,0x4
  401e4d:	85 db                	test   ebx,ebx
  401e4f:	74 2b                	je     401e7c <___mingwthr_run_key_dtors.part.0+0x4c>
  401e51:	8b 03                	mov    eax,DWORD PTR [ebx]
  401e53:	89 04 24             	mov    DWORD PTR [esp],eax
  401e56:	e8 4d 63 00 00       	call   4081a8 <_TlsGetValue@4>
  401e5b:	83 ec 04             	sub    esp,0x4
  401e5e:	89 c6                	mov    esi,eax
  401e60:	e8 4b 63 00 00       	call   4081b0 <_GetLastError@0>
  401e65:	85 c0                	test   eax,eax
  401e67:	75 0c                	jne    401e75 <___mingwthr_run_key_dtors.part.0+0x45>
  401e69:	85 f6                	test   esi,esi
  401e6b:	74 08                	je     401e75 <___mingwthr_run_key_dtors.part.0+0x45>
  401e6d:	8b 43 04             	mov    eax,DWORD PTR [ebx+0x4]
  401e70:	89 34 24             	mov    DWORD PTR [esp],esi
  401e73:	ff d0                	call   eax
  401e75:	8b 5b 08             	mov    ebx,DWORD PTR [ebx+0x8]
  401e78:	85 db                	test   ebx,ebx
  401e7a:	75 d5                	jne    401e51 <___mingwthr_run_key_dtors.part.0+0x21>
  401e7c:	c7 04 24 4c d0 40 00 	mov    DWORD PTR [esp],0x40d04c
  401e83:	e8 30 63 00 00       	call   4081b8 <_LeaveCriticalSection@4>
  401e88:	83 ec 04             	sub    esp,0x4
  401e8b:	8d 65 f8             	lea    esp,[ebp-0x8]
  401e8e:	5b                   	pop    ebx
  401e8f:	5e                   	pop    esi
  401e90:	5d                   	pop    ebp
  401e91:	c3                   	ret    
  401e92:	8d b4 26 00 00 00 00 	lea    esi,[esi+eiz*1+0x0]
  401e99:	8d bc 27 00 00 00 00 	lea    edi,[edi+eiz*1+0x0]

00401ea0 <____w64_mingwthr_add_key_dtor>:
  401ea0:	55                   	push   ebp
  401ea1:	89 e5                	mov    ebp,esp
  401ea3:	56                   	push   esi
  401ea4:	31 f6                	xor    esi,esi
  401ea6:	53                   	push   ebx
  401ea7:	83 ec 10             	sub    esp,0x10
  401eaa:	a1 48 d0 40 00       	mov    eax,ds:0x40d048
  401eaf:	85 c0                	test   eax,eax
  401eb1:	75 0d                	jne    401ec0 <____w64_mingwthr_add_key_dtor+0x20>
  401eb3:	8d 65 f8             	lea    esp,[ebp-0x8]
  401eb6:	89 f0                	mov    eax,esi
  401eb8:	5b                   	pop    ebx
  401eb9:	5e                   	pop    esi
  401eba:	5d                   	pop    ebp
  401ebb:	c3                   	ret    
  401ebc:	8d 74 26 00          	lea    esi,[esi+eiz*1+0x0]
  401ec0:	c7 44 24 04 0c 00 00 	mov    DWORD PTR [esp+0x4],0xc
  401ec7:	00 
  401ec8:	c7 04 24 01 00 00 00 	mov    DWORD PTR [esp],0x1
  401ecf:	e8 0c 62 00 00       	call   4080e0 <_calloc>
  401ed4:	85 c0                	test   eax,eax
  401ed6:	89 c3                	mov    ebx,eax
  401ed8:	74 40                	je     401f1a <____w64_mingwthr_add_key_dtor+0x7a>
  401eda:	8b 45 08             	mov    eax,DWORD PTR [ebp+0x8]
  401edd:	c7 04 24 4c d0 40 00 	mov    DWORD PTR [esp],0x40d04c
  401ee4:	89 03                	mov    DWORD PTR [ebx],eax
  401ee6:	8b 45 0c             	mov    eax,DWORD PTR [ebp+0xc]
  401ee9:	89 43 04             	mov    DWORD PTR [ebx+0x4],eax
  401eec:	e8 af 62 00 00       	call   4081a0 <_EnterCriticalSection@4>
  401ef1:	a1 44 d0 40 00       	mov    eax,ds:0x40d044
  401ef6:	89 1d 44 d0 40 00    	mov    DWORD PTR ds:0x40d044,ebx
  401efc:	89 43 08             	mov    DWORD PTR [ebx+0x8],eax
  401eff:	83 ec 04             	sub    esp,0x4
  401f02:	c7 04 24 4c d0 40 00 	mov    DWORD PTR [esp],0x40d04c
  401f09:	e8 aa 62 00 00       	call   4081b8 <_LeaveCriticalSection@4>
  401f0e:	89 f0                	mov    eax,esi
  401f10:	83 ec 04             	sub    esp,0x4
  401f13:	8d 65 f8             	lea    esp,[ebp-0x8]
  401f16:	5b                   	pop    ebx
  401f17:	5e                   	pop    esi
  401f18:	5d                   	pop    ebp
  401f19:	c3                   	ret    
  401f1a:	be ff ff ff ff       	mov    esi,0xffffffff
  401f1f:	eb 92                	jmp    401eb3 <____w64_mingwthr_add_key_dtor+0x13>
  401f21:	eb 0d                	jmp    401f30 <____w64_mingwthr_remove_key_dtor>
  401f23:	90                   	nop
  401f24:	90                   	nop
  401f25:	90                   	nop
  401f26:	90                   	nop
  401f27:	90                   	nop
  401f28:	90                   	nop
  401f29:	90                   	nop
  401f2a:	90                   	nop
  401f2b:	90                   	nop
  401f2c:	90                   	nop
  401f2d:	90                   	nop
  401f2e:	90                   	nop
  401f2f:	90                   	nop

00401f30 <____w64_mingwthr_remove_key_dtor>:
  401f30:	55                   	push   ebp
  401f31:	89 e5                	mov    ebp,esp
  401f33:	53                   	push   ebx
  401f34:	83 ec 14             	sub    esp,0x14
  401f37:	a1 48 d0 40 00       	mov    eax,ds:0x40d048
  401f3c:	8b 5d 08             	mov    ebx,DWORD PTR [ebp+0x8]
  401f3f:	85 c0                	test   eax,eax
  401f41:	75 0d                	jne    401f50 <____w64_mingwthr_remove_key_dtor+0x20>
  401f43:	31 c0                	xor    eax,eax
  401f45:	8b 5d fc             	mov    ebx,DWORD PTR [ebp-0x4]
  401f48:	c9                   	leave  
  401f49:	c3                   	ret    
  401f4a:	8d b6 00 00 00 00    	lea    esi,[esi+0x0]
  401f50:	c7 04 24 4c d0 40 00 	mov    DWORD PTR [esp],0x40d04c
  401f57:	e8 44 62 00 00       	call   4081a0 <_EnterCriticalSection@4>
  401f5c:	8b 15 44 d0 40 00    	mov    edx,DWORD PTR ds:0x40d044
  401f62:	83 ec 04             	sub    esp,0x4
  401f65:	85 d2                	test   edx,edx
  401f67:	74 17                	je     401f80 <____w64_mingwthr_remove_key_dtor+0x50>
  401f69:	8b 02                	mov    eax,DWORD PTR [edx]
  401f6b:	39 d8                	cmp    eax,ebx
  401f6d:	75 0a                	jne    401f79 <____w64_mingwthr_remove_key_dtor+0x49>
  401f6f:	eb 44                	jmp    401fb5 <____w64_mingwthr_remove_key_dtor+0x85>
  401f71:	8b 08                	mov    ecx,DWORD PTR [eax]
  401f73:	39 d9                	cmp    ecx,ebx
  401f75:	74 1f                	je     401f96 <____w64_mingwthr_remove_key_dtor+0x66>
  401f77:	89 c2                	mov    edx,eax
  401f79:	8b 42 08             	mov    eax,DWORD PTR [edx+0x8]
  401f7c:	85 c0                	test   eax,eax
  401f7e:	75 f1                	jne    401f71 <____w64_mingwthr_remove_key_dtor+0x41>
  401f80:	c7 04 24 4c d0 40 00 	mov    DWORD PTR [esp],0x40d04c
  401f87:	e8 2c 62 00 00       	call   4081b8 <_LeaveCriticalSection@4>
  401f8c:	83 ec 04             	sub    esp,0x4
  401f8f:	31 c0                	xor    eax,eax
  401f91:	8b 5d fc             	mov    ebx,DWORD PTR [ebp-0x4]
  401f94:	c9                   	leave  
  401f95:	c3                   	ret    
  401f96:	8b 48 08             	mov    ecx,DWORD PTR [eax+0x8]
  401f99:	89 4a 08             	mov    DWORD PTR [edx+0x8],ecx
  401f9c:	89 04 24             	mov    DWORD PTR [esp],eax
  401f9f:	e8 44 61 00 00       	call   4080e8 <_free>
  401fa4:	c7 04 24 4c d0 40 00 	mov    DWORD PTR [esp],0x40d04c
  401fab:	e8 08 62 00 00       	call   4081b8 <_LeaveCriticalSection@4>
  401fb0:	83 ec 04             	sub    esp,0x4
  401fb3:	eb da                	jmp    401f8f <____w64_mingwthr_remove_key_dtor+0x5f>
  401fb5:	8b 42 08             	mov    eax,DWORD PTR [edx+0x8]
  401fb8:	a3 44 d0 40 00       	mov    ds:0x40d044,eax
  401fbd:	89 d0                	mov    eax,edx
  401fbf:	eb db                	jmp    401f9c <____w64_mingwthr_remove_key_dtor+0x6c>
  401fc1:	eb 0d                	jmp    401fd0 <___mingw_TLScallback>
  401fc3:	90                   	nop
  401fc4:	90                   	nop
  401fc5:	90                   	nop
  401fc6:	90                   	nop
  401fc7:	90                   	nop
  401fc8:	90                   	nop
  401fc9:	90                   	nop
  401fca:	90                   	nop
  401fcb:	90                   	nop
  401fcc:	90                   	nop
  401fcd:	90                   	nop
  401fce:	90                   	nop
  401fcf:	90                   	nop

00401fd0 <___mingw_TLScallback>:
  401fd0:	55                   	push   ebp
  401fd1:	89 e5                	mov    ebp,esp
  401fd3:	83 ec 18             	sub    esp,0x18
  401fd6:	8b 45 0c             	mov    eax,DWORD PTR [ebp+0xc]
  401fd9:	83 f8 01             	cmp    eax,0x1
  401fdc:	74 45                	je     402023 <___mingw_TLScallback+0x53>
  401fde:	72 15                	jb     401ff5 <___mingw_TLScallback+0x25>
  401fe0:	83 f8 03             	cmp    eax,0x3
  401fe3:	75 09                	jne    401fee <___mingw_TLScallback+0x1e>
  401fe5:	a1 48 d0 40 00       	mov    eax,ds:0x40d048
  401fea:	85 c0                	test   eax,eax
  401fec:	75 63                	jne    402051 <___mingw_TLScallback+0x81>
  401fee:	b8 01 00 00 00       	mov    eax,0x1
  401ff3:	c9                   	leave  
  401ff4:	c3                   	ret    
  401ff5:	a1 48 d0 40 00       	mov    eax,ds:0x40d048
  401ffa:	85 c0                	test   eax,eax
  401ffc:	75 5a                	jne    402058 <___mingw_TLScallback+0x88>
  401ffe:	a1 48 d0 40 00       	mov    eax,ds:0x40d048
  402003:	83 f8 01             	cmp    eax,0x1
  402006:	75 e6                	jne    401fee <___mingw_TLScallback+0x1e>
  402008:	c7 04 24 4c d0 40 00 	mov    DWORD PTR [esp],0x40d04c
  40200f:	c7 05 48 d0 40 00 00 	mov    DWORD PTR ds:0x40d048,0x0
  402016:	00 00 00 
  402019:	e8 a2 61 00 00       	call   4081c0 <_DeleteCriticalSection@4>
  40201e:	83 ec 04             	sub    esp,0x4
  402021:	eb cb                	jmp    401fee <___mingw_TLScallback+0x1e>
  402023:	a1 48 d0 40 00       	mov    eax,ds:0x40d048
  402028:	85 c0                	test   eax,eax
  40202a:	74 14                	je     402040 <___mingw_TLScallback+0x70>
  40202c:	c7 05 48 d0 40 00 01 	mov    DWORD PTR ds:0x40d048,0x1
  402033:	00 00 00 
  402036:	b8 01 00 00 00       	mov    eax,0x1
  40203b:	c9                   	leave  
  40203c:	c3                   	ret    
  40203d:	8d 76 00             	lea    esi,[esi+0x0]
  402040:	c7 04 24 4c d0 40 00 	mov    DWORD PTR [esp],0x40d04c
  402047:	e8 7c 61 00 00       	call   4081c8 <_InitializeCriticalSection@4>
  40204c:	83 ec 04             	sub    esp,0x4
  40204f:	eb db                	jmp    40202c <___mingw_TLScallback+0x5c>
  402051:	e8 da fd ff ff       	call   401e30 <___mingwthr_run_key_dtors.part.0>
  402056:	eb 96                	jmp    401fee <___mingw_TLScallback+0x1e>
  402058:	90                   	nop
  402059:	8d b4 26 00 00 00 00 	lea    esi,[esi+eiz*1+0x0]
  402060:	e8 cb fd ff ff       	call   401e30 <___mingwthr_run_key_dtors.part.0>
  402065:	eb 97                	jmp    401ffe <___mingw_TLScallback+0x2e>
  402067:	90                   	nop
  402068:	90                   	nop
  402069:	90                   	nop
  40206a:	90                   	nop
  40206b:	90                   	nop
  40206c:	90                   	nop
  40206d:	90                   	nop
  40206e:	90                   	nop
  40206f:	90                   	nop

00402070 <___chkstk_ms>:
  402070:	51                   	push   ecx
  402071:	50                   	push   eax
  402072:	3d 00 10 00 00       	cmp    eax,0x1000
  402077:	8d 4c 24 0c          	lea    ecx,[esp+0xc]
  40207b:	72 15                	jb     402092 <___chkstk_ms+0x22>
  40207d:	81 e9 00 10 00 00    	sub    ecx,0x1000
  402083:	83 09 00             	or     DWORD PTR [ecx],0x0
  402086:	2d 00 10 00 00       	sub    eax,0x1000
  40208b:	3d 00 10 00 00       	cmp    eax,0x1000
  402090:	77 eb                	ja     40207d <___chkstk_ms+0xd>
  402092:	29 c1                	sub    ecx,eax
  402094:	83 09 00             	or     DWORD PTR [ecx],0x0
  402097:	58                   	pop    eax
  402098:	59                   	pop    ecx
  402099:	c3                   	ret    
  40209a:	90                   	nop
  40209b:	90                   	nop

0040209c <.text>:
  40209c:	66 90                	xchg   ax,ax
  40209e:	66 90                	xchg   ax,ax

004020a0 <_is_glob_pattern>:
  4020a0:	57                   	push   edi
  4020a1:	85 c0                	test   eax,eax
  4020a3:	56                   	push   esi
  4020a4:	53                   	push   ebx
  4020a5:	89 c3                	mov    ebx,eax
  4020a7:	74 44                	je     4020ed <_is_glob_pattern+0x4d>
  4020a9:	0f be 0b             	movsx  ecx,BYTE PTR [ebx]
  4020ac:	89 d6                	mov    esi,edx
  4020ae:	31 c0                	xor    eax,eax
  4020b0:	83 e6 20             	and    esi,0x20
  4020b3:	8d 53 01             	lea    edx,[ebx+0x1]
  4020b6:	85 c9                	test   ecx,ecx
  4020b8:	74 33                	je     4020ed <_is_glob_pattern+0x4d>
  4020ba:	8d b6 00 00 00 00    	lea    esi,[esi+0x0]
  4020c0:	85 f6                	test   esi,esi
  4020c2:	89 f7                	mov    edi,esi
  4020c4:	75 05                	jne    4020cb <_is_glob_pattern+0x2b>
  4020c6:	83 f9 7f             	cmp    ecx,0x7f
  4020c9:	74 45                	je     402110 <_is_glob_pattern+0x70>
  4020cb:	85 c0                	test   eax,eax
  4020cd:	75 26                	jne    4020f5 <_is_glob_pattern+0x55>
  4020cf:	83 f9 3f             	cmp    ecx,0x3f
  4020d2:	74 51                	je     402125 <_is_glob_pattern+0x85>
  4020d4:	83 f9 2a             	cmp    ecx,0x2a
  4020d7:	74 4c                	je     402125 <_is_glob_pattern+0x85>
  4020d9:	31 c0                	xor    eax,eax
  4020db:	83 f9 5b             	cmp    ecx,0x5b
  4020de:	0f 94 c0             	sete   al
  4020e1:	89 d3                	mov    ebx,edx
  4020e3:	0f be 0b             	movsx  ecx,BYTE PTR [ebx]
  4020e6:	8d 53 01             	lea    edx,[ebx+0x1]
  4020e9:	85 c9                	test   ecx,ecx
  4020eb:	75 d3                	jne    4020c0 <_is_glob_pattern+0x20>
  4020ed:	31 ff                	xor    edi,edi
  4020ef:	89 f8                	mov    eax,edi
  4020f1:	5b                   	pop    ebx
  4020f2:	5e                   	pop    esi
  4020f3:	5f                   	pop    edi
  4020f4:	c3                   	ret    
  4020f5:	83 f9 5d             	cmp    ecx,0x5d
  4020f8:	74 26                	je     402120 <_is_glob_pattern+0x80>
  4020fa:	83 f9 21             	cmp    ecx,0x21
  4020fd:	89 d3                	mov    ebx,edx
  4020ff:	0f 95 c1             	setne  cl
  402102:	0f b6 c9             	movzx  ecx,cl
  402105:	01 c8                	add    eax,ecx
  402107:	eb da                	jmp    4020e3 <_is_glob_pattern+0x43>
  402109:	8d b4 26 00 00 00 00 	lea    esi,[esi+eiz*1+0x0]
  402110:	80 7b 01 00          	cmp    BYTE PTR [ebx+0x1],0x0
  402114:	8d 53 02             	lea    edx,[ebx+0x2]
  402117:	75 b2                	jne    4020cb <_is_glob_pattern+0x2b>
  402119:	eb d4                	jmp    4020ef <_is_glob_pattern+0x4f>
  40211b:	90                   	nop
  40211c:	8d 74 26 00          	lea    esi,[esi+eiz*1+0x0]
  402120:	83 f8 01             	cmp    eax,0x1
  402123:	7e d5                	jle    4020fa <_is_glob_pattern+0x5a>
  402125:	bf 01 00 00 00       	mov    edi,0x1
  40212a:	89 f8                	mov    eax,edi
  40212c:	5b                   	pop    ebx
  40212d:	5e                   	pop    esi
  40212e:	5f                   	pop    edi
  40212f:	c3                   	ret    

00402130 <_glob_in_set>:
  402130:	55                   	push   ebp
  402131:	57                   	push   edi
  402132:	56                   	push   esi
  402133:	53                   	push   ebx
  402134:	83 ec 04             	sub    esp,0x4
  402137:	0f b6 18             	movzx  ebx,BYTE PTR [eax]
  40213a:	89 0c 24             	mov    DWORD PTR [esp],ecx
  40213d:	0f be fb             	movsx  edi,bl
  402140:	83 ff 5d             	cmp    edi,0x5d
  402143:	0f 84 d7 00 00 00    	je     402220 <_glob_in_set+0xf0>
  402149:	83 ff 2d             	cmp    edi,0x2d
  40214c:	89 d9                	mov    ecx,ebx
  40214e:	75 2e                	jne    40217e <_glob_in_set+0x4e>
  402150:	e9 cb 00 00 00       	jmp    402220 <_glob_in_set+0xf0>
  402155:	85 db                	test   ebx,ebx
  402157:	0f 84 b3 00 00 00    	je     402210 <_glob_in_set+0xe0>
  40215d:	83 fb 5c             	cmp    ebx,0x5c
  402160:	0f 84 aa 00 00 00    	je     402210 <_glob_in_set+0xe0>
  402166:	83 fb 2f             	cmp    ebx,0x2f
  402169:	0f 84 a1 00 00 00    	je     402210 <_glob_in_set+0xe0>
  40216f:	89 df                	mov    edi,ebx
  402171:	0f b6 0e             	movzx  ecx,BYTE PTR [esi]
  402174:	89 f0                	mov    eax,esi
  402176:	39 d7                	cmp    edi,edx
  402178:	0f 84 ca 00 00 00    	je     402248 <_glob_in_set+0x118>
  40217e:	0f be d9             	movsx  ebx,cl
  402181:	83 fb 5d             	cmp    ebx,0x5d
  402184:	8d 70 01             	lea    esi,[eax+0x1]
  402187:	0f 84 83 00 00 00    	je     402210 <_glob_in_set+0xe0>
  40218d:	83 fb 2d             	cmp    ebx,0x2d
  402190:	75 c3                	jne    402155 <_glob_in_set+0x25>
  402192:	0f b6 58 01          	movzx  ebx,BYTE PTR [eax+0x1]
  402196:	80 fb 5d             	cmp    bl,0x5d
  402199:	0f 84 95 00 00 00    	je     402234 <_glob_in_set+0x104>
  40219f:	0f be eb             	movsx  ebp,bl
  4021a2:	85 ed                	test   ebp,ebp
  4021a4:	89 eb                	mov    ebx,ebp
  4021a6:	74 68                	je     402210 <_glob_in_set+0xe0>
  4021a8:	39 ef                	cmp    edi,ebp
  4021aa:	8d 70 02             	lea    esi,[eax+0x2]
  4021ad:	0f 8d 85 01 00 00    	jge    402338 <_glob_in_set+0x208>
  4021b3:	39 d7                	cmp    edi,edx
  4021b5:	8d 47 01             	lea    eax,[edi+0x1]
  4021b8:	75 14                	jne    4021ce <_glob_in_set+0x9e>
  4021ba:	e9 c1 00 00 00       	jmp    402280 <_glob_in_set+0x150>
  4021bf:	90                   	nop
  4021c0:	83 c0 01             	add    eax,0x1
  4021c3:	8d 78 ff             	lea    edi,[eax-0x1]
  4021c6:	39 fa                	cmp    edx,edi
  4021c8:	0f 84 b2 00 00 00    	je     402280 <_glob_in_set+0x150>
  4021ce:	39 c5                	cmp    ebp,eax
  4021d0:	7f ee                	jg     4021c0 <_glob_in_set+0x90>
  4021d2:	39 c5                	cmp    ebp,eax
  4021d4:	7d 87                	jge    40215d <_glob_in_set+0x2d>
  4021d6:	39 c2                	cmp    edx,eax
  4021d8:	74 15                	je     4021ef <_glob_in_set+0xbf>
  4021da:	83 c5 01             	add    ebp,0x1
  4021dd:	8d 76 00             	lea    esi,[esi+0x0]
  4021e0:	39 e8                	cmp    eax,ebp
  4021e2:	0f 84 75 ff ff ff    	je     40215d <_glob_in_set+0x2d>
  4021e8:	83 e8 01             	sub    eax,0x1
  4021eb:	39 c2                	cmp    edx,eax
  4021ed:	75 f1                	jne    4021e0 <_glob_in_set+0xb0>
  4021ef:	8b 0c 24             	mov    ecx,DWORD PTR [esp]
  4021f2:	83 e1 20             	and    ecx,0x20
  4021f5:	0f b6 06             	movzx  eax,BYTE PTR [esi]
  4021f8:	3c 5d                	cmp    al,0x5d
  4021fa:	0f 84 a3 00 00 00    	je     4022a3 <_glob_in_set+0x173>
  402200:	3c 7f                	cmp    al,0x7f
  402202:	0f 84 bd 00 00 00    	je     4022c5 <_glob_in_set+0x195>
  402208:	83 c6 01             	add    esi,0x1
  40220b:	84 c0                	test   al,al
  40220d:	75 e6                	jne    4021f5 <_glob_in_set+0xc5>
  40220f:	90                   	nop
  402210:	83 c4 04             	add    esp,0x4
  402213:	31 c0                	xor    eax,eax
  402215:	5b                   	pop    ebx
  402216:	5e                   	pop    esi
  402217:	5f                   	pop    edi
  402218:	5d                   	pop    ebp
  402219:	c3                   	ret    
  40221a:	8d b6 00 00 00 00    	lea    esi,[esi+0x0]
  402220:	39 d7                	cmp    edi,edx
  402222:	0f 84 b8 00 00 00    	je     4022e0 <_glob_in_set+0x1b0>
  402228:	0f b6 48 01          	movzx  ecx,BYTE PTR [eax+0x1]
  40222c:	83 c0 01             	add    eax,0x1
  40222f:	e9 4a ff ff ff       	jmp    40217e <_glob_in_set+0x4e>
  402234:	bf 2d 00 00 00       	mov    edi,0x2d
  402239:	89 f0                	mov    eax,esi
  40223b:	39 d7                	cmp    edi,edx
  40223d:	b9 5d 00 00 00       	mov    ecx,0x5d
  402242:	0f 85 36 ff ff ff    	jne    40217e <_glob_in_set+0x4e>
  402248:	8b 14 24             	mov    edx,DWORD PTR [esp]
  40224b:	83 e2 20             	and    edx,0x20
  40224e:	eb 0a                	jmp    40225a <_glob_in_set+0x12a>
  402250:	83 c0 01             	add    eax,0x1
  402253:	84 c9                	test   cl,cl
  402255:	74 b9                	je     402210 <_glob_in_set+0xe0>
  402257:	0f b6 08             	movzx  ecx,BYTE PTR [eax]
  40225a:	80 f9 5d             	cmp    cl,0x5d
  40225d:	0f 84 c2 00 00 00    	je     402325 <_glob_in_set+0x1f5>
  402263:	80 f9 7f             	cmp    cl,0x7f
  402266:	75 e8                	jne    402250 <_glob_in_set+0x120>
  402268:	85 d2                	test   edx,edx
  40226a:	0f 85 c0 00 00 00    	jne    402330 <_glob_in_set+0x200>
  402270:	0f b6 48 01          	movzx  ecx,BYTE PTR [eax+0x1]
  402274:	83 c0 01             	add    eax,0x1
  402277:	eb d7                	jmp    402250 <_glob_in_set+0x120>
  402279:	8d b4 26 00 00 00 00 	lea    esi,[esi+eiz*1+0x0]
  402280:	8b 0c 24             	mov    ecx,DWORD PTR [esp]
  402283:	83 e1 20             	and    ecx,0x20
  402286:	0f b6 06             	movzx  eax,BYTE PTR [esi]
  402289:	3c 5d                	cmp    al,0x5d
  40228b:	74 16                	je     4022a3 <_glob_in_set+0x173>
  40228d:	3c 7f                	cmp    al,0x7f
  40228f:	74 1f                	je     4022b0 <_glob_in_set+0x180>
  402291:	83 c6 01             	add    esi,0x1
  402294:	84 c0                	test   al,al
  402296:	0f 84 74 ff ff ff    	je     402210 <_glob_in_set+0xe0>
  40229c:	0f b6 06             	movzx  eax,BYTE PTR [esi]
  40229f:	3c 5d                	cmp    al,0x5d
  4022a1:	75 ea                	jne    40228d <_glob_in_set+0x15d>
  4022a3:	83 c4 04             	add    esp,0x4
  4022a6:	5b                   	pop    ebx
  4022a7:	8d 46 01             	lea    eax,[esi+0x1]
  4022aa:	5e                   	pop    esi
  4022ab:	5f                   	pop    edi
  4022ac:	5d                   	pop    ebp
  4022ad:	c3                   	ret    
  4022ae:	66 90                	xchg   ax,ax
  4022b0:	85 c9                	test   ecx,ecx
  4022b2:	75 0c                	jne    4022c0 <_glob_in_set+0x190>
  4022b4:	0f b6 46 01          	movzx  eax,BYTE PTR [esi+0x1]
  4022b8:	83 c6 01             	add    esi,0x1
  4022bb:	eb d4                	jmp    402291 <_glob_in_set+0x161>
  4022bd:	8d 76 00             	lea    esi,[esi+0x0]
  4022c0:	83 c6 01             	add    esi,0x1
  4022c3:	eb c1                	jmp    402286 <_glob_in_set+0x156>
  4022c5:	85 c9                	test   ecx,ecx
  4022c7:	75 0c                	jne    4022d5 <_glob_in_set+0x1a5>
  4022c9:	0f b6 46 01          	movzx  eax,BYTE PTR [esi+0x1]
  4022cd:	83 c6 01             	add    esi,0x1
  4022d0:	e9 33 ff ff ff       	jmp    402208 <_glob_in_set+0xd8>
  4022d5:	83 c6 01             	add    esi,0x1
  4022d8:	e9 18 ff ff ff       	jmp    4021f5 <_glob_in_set+0xc5>
  4022dd:	8d 76 00             	lea    esi,[esi+0x0]
  4022e0:	8b 0c 24             	mov    ecx,DWORD PTR [esp]
  4022e3:	83 c0 01             	add    eax,0x1
  4022e6:	83 e1 20             	and    ecx,0x20
  4022e9:	8d b4 26 00 00 00 00 	lea    esi,[esi+eiz*1+0x0]
  4022f0:	0f b6 10             	movzx  edx,BYTE PTR [eax]
  4022f3:	80 fa 5d             	cmp    dl,0x5d
  4022f6:	74 2d                	je     402325 <_glob_in_set+0x1f5>
  4022f8:	80 fa 7f             	cmp    dl,0x7f
  4022fb:	74 13                	je     402310 <_glob_in_set+0x1e0>
  4022fd:	83 c0 01             	add    eax,0x1
  402300:	84 d2                	test   dl,dl
  402302:	75 ec                	jne    4022f0 <_glob_in_set+0x1c0>
  402304:	e9 07 ff ff ff       	jmp    402210 <_glob_in_set+0xe0>
  402309:	8d b4 26 00 00 00 00 	lea    esi,[esi+eiz*1+0x0]
  402310:	85 c9                	test   ecx,ecx
  402312:	75 0c                	jne    402320 <_glob_in_set+0x1f0>
  402314:	0f b6 50 01          	movzx  edx,BYTE PTR [eax+0x1]
  402318:	83 c0 01             	add    eax,0x1
  40231b:	eb e0                	jmp    4022fd <_glob_in_set+0x1cd>
  40231d:	8d 76 00             	lea    esi,[esi+0x0]
  402320:	83 c0 01             	add    eax,0x1
  402323:	eb cb                	jmp    4022f0 <_glob_in_set+0x1c0>
  402325:	83 c4 04             	add    esp,0x4
  402328:	83 c0 01             	add    eax,0x1
  40232b:	5b                   	pop    ebx
  40232c:	5e                   	pop    esi
  40232d:	5f                   	pop    edi
  40232e:	5d                   	pop    ebp
  40232f:	c3                   	ret    
  402330:	83 c0 01             	add    eax,0x1
  402333:	e9 1f ff ff ff       	jmp    402257 <_glob_in_set+0x127>
  402338:	89 f8                	mov    eax,edi
  40233a:	e9 93 fe ff ff       	jmp    4021d2 <_glob_in_set+0xa2>
  40233f:	90                   	nop

00402340 <_glob_initialise>:
  402340:	55                   	push   ebp
  402341:	57                   	push   edi
  402342:	56                   	push   esi
  402343:	89 c6                	mov    esi,eax
  402345:	53                   	push   ebx
  402346:	83 ec 1c             	sub    esp,0x1c
  402349:	85 c0                	test   eax,eax
  40234b:	74 47                	je     402394 <_glob_initialise+0x54>
  40234d:	8b 40 0c             	mov    eax,DWORD PTR [eax+0xc]
  402350:	8d 78 01             	lea    edi,[eax+0x1]
  402353:	8d 2c bd 00 00 00 00 	lea    ebp,[edi*4+0x0]
  40235a:	89 2c 24             	mov    DWORD PTR [esp],ebp
  40235d:	e8 8e 5d 00 00       	call   4080f0 <_malloc>
  402362:	89 c3                	mov    ebx,eax
  402364:	85 db                	test   ebx,ebx
  402366:	89 46 08             	mov    DWORD PTR [esi+0x8],eax
  402369:	b8 03 00 00 00       	mov    eax,0x3
  40236e:	74 26                	je     402396 <_glob_initialise+0x56>
  402370:	85 ff                	test   edi,edi
  402372:	89 fa                	mov    edx,edi
  402374:	c7 46 04 00 00 00 00 	mov    DWORD PTR [esi+0x4],0x0
  40237b:	7e 17                	jle    402394 <_glob_initialise+0x54>
  40237d:	8d 4d fc             	lea    ecx,[ebp-0x4]
  402380:	eb 03                	jmp    402385 <_glob_initialise+0x45>
  402382:	8b 5e 08             	mov    ebx,DWORD PTR [esi+0x8]
  402385:	c7 04 0b 00 00 00 00 	mov    DWORD PTR [ebx+ecx*1],0x0
  40238c:	83 e9 04             	sub    ecx,0x4
  40238f:	83 ea 01             	sub    edx,0x1
  402392:	75 ee                	jne    402382 <_glob_initialise+0x42>
  402394:	31 c0                	xor    eax,eax
  402396:	83 c4 1c             	add    esp,0x1c
  402399:	5b                   	pop    ebx
  40239a:	5e                   	pop    esi
  40239b:	5f                   	pop    edi
  40239c:	5d                   	pop    ebp
  40239d:	c3                   	ret    
  40239e:	66 90                	xchg   ax,ax

004023a0 <_glob_strcmp>:
  4023a0:	55                   	push   ebp
  4023a1:	57                   	push   edi
  4023a2:	89 c7                	mov    edi,eax
  4023a4:	56                   	push   esi
  4023a5:	53                   	push   ebx
  4023a6:	83 ec 2c             	sub    esp,0x2c
  4023a9:	80 3a 2e             	cmp    BYTE PTR [edx],0x2e
  4023ac:	89 4c 24 10          	mov    DWORD PTR [esp+0x10],ecx
  4023b0:	0f 84 5a 01 00 00    	je     402510 <_glob_strcmp+0x170>
  4023b6:	0f b6 08             	movzx  ecx,BYTE PTR [eax]
  4023b9:	8b 74 24 10          	mov    esi,DWORD PTR [esp+0x10]
  4023bd:	8d 6a 01             	lea    ebp,[edx+0x1]
  4023c0:	89 f0                	mov    eax,esi
  4023c2:	83 e0 20             	and    eax,0x20
  4023c5:	89 44 24 14          	mov    DWORD PTR [esp+0x14],eax
  4023c9:	89 f0                	mov    eax,esi
  4023cb:	25 00 40 00 00       	and    eax,0x4000
  4023d0:	89 44 24 18          	mov    DWORD PTR [esp+0x18],eax
  4023d4:	0f be d1             	movsx  edx,cl
  4023d7:	85 d2                	test   edx,edx
  4023d9:	8d 75 ff             	lea    esi,[ebp-0x1]
  4023dc:	8d 47 01             	lea    eax,[edi+0x1]
  4023df:	0f 84 70 01 00 00    	je     402555 <_glob_strcmp+0x1b5>
  4023e5:	80 f9 3f             	cmp    cl,0x3f
  4023e8:	0f 84 e4 00 00 00    	je     4024d2 <_glob_strcmp+0x132>
  4023ee:	80 f9 5b             	cmp    cl,0x5b
  4023f1:	0f 84 ab 00 00 00    	je     4024a2 <_glob_strcmp+0x102>
  4023f7:	80 f9 2a             	cmp    cl,0x2a
  4023fa:	74 5c                	je     402458 <_glob_strcmp+0xb8>
  4023fc:	8b 4c 24 14          	mov    ecx,DWORD PTR [esp+0x14]
  402400:	85 c9                	test   ecx,ecx
  402402:	0f 84 d8 00 00 00    	je     4024e0 <_glob_strcmp+0x140>
  402408:	89 c7                	mov    edi,eax
  40240a:	0f be 5d ff          	movsx  ebx,BYTE PTR [ebp-0x1]
  40240e:	84 db                	test   bl,bl
  402410:	0f 84 92 01 00 00    	je     4025a8 <_glob_strcmp+0x208>
  402416:	8b 44 24 18          	mov    eax,DWORD PTR [esp+0x18]
  40241a:	85 c0                	test   eax,eax
  40241c:	0f 85 de 00 00 00    	jne    402500 <_glob_strcmp+0x160>
  402422:	89 14 24             	mov    DWORD PTR [esp],edx
  402425:	89 54 24 1c          	mov    DWORD PTR [esp+0x1c],edx
  402429:	e8 ca 5c 00 00       	call   4080f8 <_tolower>
  40242e:	89 1c 24             	mov    DWORD PTR [esp],ebx
  402431:	89 c6                	mov    esi,eax
  402433:	e8 c0 5c 00 00       	call   4080f8 <_tolower>
  402438:	8b 54 24 1c          	mov    edx,DWORD PTR [esp+0x1c]
  40243c:	29 c6                	sub    esi,eax
  40243e:	85 f6                	test   esi,esi
  402440:	0f 84 81 00 00 00    	je     4024c7 <_glob_strcmp+0x127>
  402446:	89 d0                	mov    eax,edx
  402448:	29 d8                	sub    eax,ebx
  40244a:	8d b6 00 00 00 00    	lea    esi,[esi+0x0]
  402450:	83 c4 2c             	add    esp,0x2c
  402453:	5b                   	pop    ebx
  402454:	5e                   	pop    esi
  402455:	5f                   	pop    edi
  402456:	5d                   	pop    ebp
  402457:	c3                   	ret    
  402458:	0f b6 57 01          	movzx  edx,BYTE PTR [edi+0x1]
  40245c:	89 c3                	mov    ebx,eax
  40245e:	80 fa 2a             	cmp    dl,0x2a
  402461:	75 0b                	jne    40246e <_glob_strcmp+0xce>
  402463:	83 c3 01             	add    ebx,0x1
  402466:	0f b6 13             	movzx  edx,BYTE PTR [ebx]
  402469:	80 fa 2a             	cmp    dl,0x2a
  40246c:	74 f5                	je     402463 <_glob_strcmp+0xc3>
  40246e:	31 c0                	xor    eax,eax
  402470:	84 d2                	test   dl,dl
  402472:	74 dc                	je     402450 <_glob_strcmp+0xb0>
  402474:	8b 7c 24 10          	mov    edi,DWORD PTR [esp+0x10]
  402478:	81 cf 00 00 01 00    	or     edi,0x10000
  40247e:	eb 09                	jmp    402489 <_glob_strcmp+0xe9>
  402480:	83 c6 01             	add    esi,0x1
  402483:	80 7e ff 00          	cmp    BYTE PTR [esi-0x1],0x0
  402487:	74 c7                	je     402450 <_glob_strcmp+0xb0>
  402489:	89 f9                	mov    ecx,edi
  40248b:	89 f2                	mov    edx,esi
  40248d:	89 d8                	mov    eax,ebx
  40248f:	e8 0c ff ff ff       	call   4023a0 <_glob_strcmp>
  402494:	85 c0                	test   eax,eax
  402496:	75 e8                	jne    402480 <_glob_strcmp+0xe0>
  402498:	83 c4 2c             	add    esp,0x2c
  40249b:	31 c0                	xor    eax,eax
  40249d:	5b                   	pop    ebx
  40249e:	5e                   	pop    esi
  40249f:	5f                   	pop    edi
  4024a0:	5d                   	pop    ebp
  4024a1:	c3                   	ret    
  4024a2:	0f be 55 ff          	movsx  edx,BYTE PTR [ebp-0x1]
  4024a6:	85 d2                	test   edx,edx
  4024a8:	0f 84 0b 01 00 00    	je     4025b9 <_glob_strcmp+0x219>
  4024ae:	80 7f 01 21          	cmp    BYTE PTR [edi+0x1],0x21
  4024b2:	74 7c                	je     402530 <_glob_strcmp+0x190>
  4024b4:	8b 4c 24 10          	mov    ecx,DWORD PTR [esp+0x10]
  4024b8:	e8 73 fc ff ff       	call   402130 <_glob_in_set>
  4024bd:	85 c0                	test   eax,eax
  4024bf:	89 c7                	mov    edi,eax
  4024c1:	0f 84 d7 00 00 00    	je     40259e <_glob_strcmp+0x1fe>
  4024c7:	0f b6 0f             	movzx  ecx,BYTE PTR [edi]
  4024ca:	83 c5 01             	add    ebp,0x1
  4024cd:	e9 02 ff ff ff       	jmp    4023d4 <_glob_strcmp+0x34>
  4024d2:	80 7d ff 00          	cmp    BYTE PTR [ebp-0x1],0x0
  4024d6:	0f 84 d3 00 00 00    	je     4025af <_glob_strcmp+0x20f>
  4024dc:	89 c7                	mov    edi,eax
  4024de:	eb e7                	jmp    4024c7 <_glob_strcmp+0x127>
  4024e0:	83 fa 7f             	cmp    edx,0x7f
  4024e3:	0f 85 1f ff ff ff    	jne    402408 <_glob_strcmp+0x68>
  4024e9:	0f be 57 01          	movsx  edx,BYTE PTR [edi+0x1]
  4024ed:	83 c7 02             	add    edi,0x2
  4024f0:	85 d2                	test   edx,edx
  4024f2:	0f 85 12 ff ff ff    	jne    40240a <_glob_strcmp+0x6a>
  4024f8:	e9 0b ff ff ff       	jmp    402408 <_glob_strcmp+0x68>
  4024fd:	8d 76 00             	lea    esi,[esi+0x0]
  402500:	89 d6                	mov    esi,edx
  402502:	29 de                	sub    esi,ebx
  402504:	e9 35 ff ff ff       	jmp    40243e <_glob_strcmp+0x9e>
  402509:	8d b4 26 00 00 00 00 	lea    esi,[esi+eiz*1+0x0]
  402510:	0f be 00             	movsx  eax,BYTE PTR [eax]
  402513:	3c 2e                	cmp    al,0x2e
  402515:	74 32                	je     402549 <_glob_strcmp+0x1a9>
  402517:	89 c1                	mov    ecx,eax
  402519:	83 e8 2e             	sub    eax,0x2e
  40251c:	f7 44 24 10 00 00 01 	test   DWORD PTR [esp+0x10],0x10000
  402523:	00 
  402524:	0f 85 8f fe ff ff    	jne    4023b9 <_glob_strcmp+0x19>
  40252a:	e9 21 ff ff ff       	jmp    402450 <_glob_strcmp+0xb0>
  40252f:	90                   	nop
  402530:	8b 4c 24 10          	mov    ecx,DWORD PTR [esp+0x10]
  402534:	8d 5f 02             	lea    ebx,[edi+0x2]
  402537:	89 d8                	mov    eax,ebx
  402539:	e8 f2 fb ff ff       	call   402130 <_glob_in_set>
  40253e:	85 c0                	test   eax,eax
  402540:	74 1d                	je     40255f <_glob_strcmp+0x1bf>
  402542:	89 df                	mov    edi,ebx
  402544:	e9 7e ff ff ff       	jmp    4024c7 <_glob_strcmp+0x127>
  402549:	b9 2e 00 00 00       	mov    ecx,0x2e
  40254e:	66 90                	xchg   ax,ax
  402550:	e9 64 fe ff ff       	jmp    4023b9 <_glob_strcmp+0x19>
  402555:	0f be 06             	movsx  eax,BYTE PTR [esi]
  402558:	f7 d8                	neg    eax
  40255a:	e9 f1 fe ff ff       	jmp    402450 <_glob_strcmp+0xb0>
  40255f:	0f b6 47 02          	movzx  eax,BYTE PTR [edi+0x2]
  402563:	8b 54 24 14          	mov    edx,DWORD PTR [esp+0x14]
  402567:	3c 5d                	cmp    al,0x5d
  402569:	75 0f                	jne    40257a <_glob_strcmp+0x1da>
  40256b:	eb 56                	jmp    4025c3 <_glob_strcmp+0x223>
  40256d:	8d 76 00             	lea    esi,[esi+0x0]
  402570:	83 c3 01             	add    ebx,0x1
  402573:	84 c0                	test   al,al
  402575:	74 27                	je     40259e <_glob_strcmp+0x1fe>
  402577:	0f b6 03             	movzx  eax,BYTE PTR [ebx]
  40257a:	3c 5d                	cmp    al,0x5d
  40257c:	74 16                	je     402594 <_glob_strcmp+0x1f4>
  40257e:	3c 7f                	cmp    al,0x7f
  402580:	75 ee                	jne    402570 <_glob_strcmp+0x1d0>
  402582:	85 d2                	test   edx,edx
  402584:	75 09                	jne    40258f <_glob_strcmp+0x1ef>
  402586:	0f b6 43 01          	movzx  eax,BYTE PTR [ebx+0x1]
  40258a:	83 c3 01             	add    ebx,0x1
  40258d:	eb e1                	jmp    402570 <_glob_strcmp+0x1d0>
  40258f:	83 c3 01             	add    ebx,0x1
  402592:	eb e3                	jmp    402577 <_glob_strcmp+0x1d7>
  402594:	83 c3 01             	add    ebx,0x1
  402597:	89 df                	mov    edi,ebx
  402599:	e9 29 ff ff ff       	jmp    4024c7 <_glob_strcmp+0x127>
  40259e:	b8 5d 00 00 00       	mov    eax,0x5d
  4025a3:	e9 a8 fe ff ff       	jmp    402450 <_glob_strcmp+0xb0>
  4025a8:	31 db                	xor    ebx,ebx
  4025aa:	e9 97 fe ff ff       	jmp    402446 <_glob_strcmp+0xa6>
  4025af:	b8 3f 00 00 00       	mov    eax,0x3f
  4025b4:	e9 97 fe ff ff       	jmp    402450 <_glob_strcmp+0xb0>
  4025b9:	b8 5b 00 00 00       	mov    eax,0x5b
  4025be:	e9 8d fe ff ff       	jmp    402450 <_glob_strcmp+0xb0>
  4025c3:	8d 5f 03             	lea    ebx,[edi+0x3]
  4025c6:	0f b6 47 03          	movzx  eax,BYTE PTR [edi+0x3]
  4025ca:	8b 54 24 14          	mov    edx,DWORD PTR [esp+0x14]
  4025ce:	eb aa                	jmp    40257a <_glob_strcmp+0x1da>

004025d0 <_glob_registry.part.1>:
  4025d0:	57                   	push   edi
  4025d1:	89 c7                	mov    edi,eax
  4025d3:	56                   	push   esi
  4025d4:	53                   	push   ebx
  4025d5:	83 ec 10             	sub    esp,0x10
  4025d8:	8b 40 04             	mov    eax,DWORD PTR [eax+0x4]
  4025db:	8b 4f 0c             	mov    ecx,DWORD PTR [edi+0xc]
  4025de:	85 c0                	test   eax,eax
  4025e0:	8d 70 ff             	lea    esi,[eax-0x1]
  4025e3:	8d 1c 8d 00 00 00 00 	lea    ebx,[ecx*4+0x0]
  4025ea:	7e 1d                	jle    402609 <_glob_registry.part.1+0x39>
  4025ec:	8d 74 26 00          	lea    esi,[esi+eiz*1+0x0]
  4025f0:	8b 57 08             	mov    edx,DWORD PTR [edi+0x8]
  4025f3:	83 ee 01             	sub    esi,0x1
  4025f6:	8b 14 1a             	mov    edx,DWORD PTR [edx+ebx*1]
  4025f9:	83 c3 04             	add    ebx,0x4
  4025fc:	89 14 24             	mov    DWORD PTR [esp],edx
  4025ff:	e8 e4 5a 00 00       	call   4080e8 <_free>
  402604:	83 fe ff             	cmp    esi,0xffffffff
  402607:	75 e7                	jne    4025f0 <_glob_registry.part.1+0x20>
  402609:	8b 47 08             	mov    eax,DWORD PTR [edi+0x8]
  40260c:	89 04 24             	mov    DWORD PTR [esp],eax
  40260f:	e8 d4 5a 00 00       	call   4080e8 <_free>
  402614:	83 c4 10             	add    esp,0x10
  402617:	31 c0                	xor    eax,eax
  402619:	5b                   	pop    ebx
  40261a:	5e                   	pop    esi
  40261b:	5f                   	pop    edi
  40261c:	c3                   	ret    
  40261d:	8d 76 00             	lea    esi,[esi+0x0]

00402620 <_glob_store_entry.part.2>:
  402620:	57                   	push   edi
  402621:	56                   	push   esi
  402622:	89 c6                	mov    esi,eax
  402624:	53                   	push   ebx
  402625:	89 d3                	mov    ebx,edx
  402627:	83 ec 10             	sub    esp,0x10
  40262a:	8b 52 04             	mov    edx,DWORD PTR [edx+0x4]
  40262d:	03 53 0c             	add    edx,DWORD PTR [ebx+0xc]
  402630:	8d 04 95 08 00 00 00 	lea    eax,[edx*4+0x8]
  402637:	89 44 24 04          	mov    DWORD PTR [esp+0x4],eax
  40263b:	8b 43 08             	mov    eax,DWORD PTR [ebx+0x8]
  40263e:	89 04 24             	mov    DWORD PTR [esp],eax
  402641:	e8 ba 5a 00 00       	call   408100 <_realloc>
  402646:	85 c0                	test   eax,eax
  402648:	89 c2                	mov    edx,eax
  40264a:	74 29                	je     402675 <_glob_store_entry.part.2+0x55>
  40264c:	8b 7b 04             	mov    edi,DWORD PTR [ebx+0x4]
  40264f:	89 43 08             	mov    DWORD PTR [ebx+0x8],eax
  402652:	8b 43 0c             	mov    eax,DWORD PTR [ebx+0xc]
  402655:	8d 4f 01             	lea    ecx,[edi+0x1]
  402658:	01 c7                	add    edi,eax
  40265a:	01 c8                	add    eax,ecx
  40265c:	89 4b 04             	mov    DWORD PTR [ebx+0x4],ecx
  40265f:	89 34 ba             	mov    DWORD PTR [edx+edi*4],esi
  402662:	8b 53 08             	mov    edx,DWORD PTR [ebx+0x8]
  402665:	c7 04 82 00 00 00 00 	mov    DWORD PTR [edx+eax*4],0x0
  40266c:	83 c4 10             	add    esp,0x10
  40266f:	31 c0                	xor    eax,eax
  402671:	5b                   	pop    ebx
  402672:	5e                   	pop    esi
  402673:	5f                   	pop    edi
  402674:	c3                   	ret    
  402675:	83 c4 10             	add    esp,0x10
  402678:	b8 01 00 00 00       	mov    eax,0x1
  40267d:	5b                   	pop    ebx
  40267e:	5e                   	pop    esi
  40267f:	5f                   	pop    edi
  402680:	c3                   	ret    
  402681:	eb 0d                	jmp    402690 <_glob_store_entry>
  402683:	90                   	nop
  402684:	90                   	nop
  402685:	90                   	nop
  402686:	90                   	nop
  402687:	90                   	nop
  402688:	90                   	nop
  402689:	90                   	nop
  40268a:	90                   	nop
  40268b:	90                   	nop
  40268c:	90                   	nop
  40268d:	90                   	nop
  40268e:	90                   	nop
  40268f:	90                   	nop

00402690 <_glob_store_entry>:
  402690:	85 c0                	test   eax,eax
  402692:	75 0c                	jne    4026a0 <_glob_store_entry+0x10>
  402694:	b8 01 00 00 00       	mov    eax,0x1
  402699:	c3                   	ret    
  40269a:	8d b6 00 00 00 00    	lea    esi,[esi+0x0]
  4026a0:	85 d2                	test   edx,edx
  4026a2:	74 f0                	je     402694 <_glob_store_entry+0x4>
  4026a4:	e9 77 ff ff ff       	jmp    402620 <_glob_store_entry.part.2>
  4026a9:	8d b4 26 00 00 00 00 	lea    esi,[esi+eiz*1+0x0]

004026b0 <_glob_store_collated_entries>:
  4026b0:	56                   	push   esi
  4026b1:	89 d6                	mov    esi,edx
  4026b3:	53                   	push   ebx
  4026b4:	89 c3                	mov    ebx,eax
  4026b6:	83 ec 14             	sub    esp,0x14
  4026b9:	8b 00                	mov    eax,DWORD PTR [eax]
  4026bb:	85 c0                	test   eax,eax
  4026bd:	74 05                	je     4026c4 <_glob_store_collated_entries+0x14>
  4026bf:	e8 ec ff ff ff       	call   4026b0 <_glob_store_collated_entries>
  4026c4:	8b 43 08             	mov    eax,DWORD PTR [ebx+0x8]
  4026c7:	89 f2                	mov    edx,esi
  4026c9:	e8 c2 ff ff ff       	call   402690 <_glob_store_entry>
  4026ce:	8b 43 04             	mov    eax,DWORD PTR [ebx+0x4]
  4026d1:	85 c0                	test   eax,eax
  4026d3:	74 07                	je     4026dc <_glob_store_collated_entries+0x2c>
  4026d5:	89 f2                	mov    edx,esi
  4026d7:	e8 d4 ff ff ff       	call   4026b0 <_glob_store_collated_entries>
  4026dc:	89 1c 24             	mov    DWORD PTR [esp],ebx
  4026df:	e8 04 5a 00 00       	call   4080e8 <_free>
  4026e4:	83 c4 14             	add    esp,0x14
  4026e7:	5b                   	pop    ebx
  4026e8:	5e                   	pop    esi
  4026e9:	c3                   	ret    
  4026ea:	8d b6 00 00 00 00    	lea    esi,[esi+0x0]

004026f0 <_glob_match>:
  4026f0:	55                   	push   ebp
  4026f1:	89 e5                	mov    ebp,esp
  4026f3:	57                   	push   edi
  4026f4:	56                   	push   esi
  4026f5:	53                   	push   ebx
  4026f6:	89 c3                	mov    ebx,eax
  4026f8:	83 ec 6c             	sub    esp,0x6c
  4026fb:	89 55 cc             	mov    DWORD PTR [ebp-0x34],edx
  4026fe:	89 4d a4             	mov    DWORD PTR [ebp-0x5c],ecx
  402701:	89 04 24             	mov    DWORD PTR [esp],eax
  402704:	e8 a7 59 00 00       	call   4080b0 <_strlen>
  402709:	8d 50 01             	lea    edx,[eax+0x1]
  40270c:	83 c0 10             	add    eax,0x10
  40270f:	83 e0 f0             	and    eax,0xfffffff0
  402712:	e8 59 f9 ff ff       	call   402070 <___chkstk_ms>
  402717:	29 c4                	sub    esp,eax
  402719:	8d 44 24 0c          	lea    eax,[esp+0xc]
  40271d:	89 54 24 08          	mov    DWORD PTR [esp+0x8],edx
  402721:	89 5c 24 04          	mov    DWORD PTR [esp+0x4],ebx
  402725:	89 04 24             	mov    DWORD PTR [esp],eax
  402728:	e8 ab 59 00 00       	call   4080d8 <_memcpy>
  40272d:	89 04 24             	mov    DWORD PTR [esp],eax
  402730:	e8 4b 06 00 00       	call   402d80 <___mingw_dirname>
  402735:	c7 45 e4 00 00 00 00 	mov    DWORD PTR [ebp-0x1c],0x0
  40273c:	89 45 b8             	mov    DWORD PTR [ebp-0x48],eax
  40273f:	8d 45 d8             	lea    eax,[ebp-0x28]
  402742:	e8 f9 fb ff ff       	call   402340 <_glob_initialise>
  402747:	85 c0                	test   eax,eax
  402749:	74 08                	je     402753 <_glob_match+0x63>
  40274b:	8d 65 f4             	lea    esp,[ebp-0xc]
  40274e:	5b                   	pop    ebx
  40274f:	5e                   	pop    esi
  402750:	5f                   	pop    edi
  402751:	5d                   	pop    ebp
  402752:	c3                   	ret    
  402753:	8b 55 cc             	mov    edx,DWORD PTR [ebp-0x34]
  402756:	8b 45 b8             	mov    eax,DWORD PTR [ebp-0x48]
  402759:	e8 42 f9 ff ff       	call   4020a0 <_is_glob_pattern>
  40275e:	85 c0                	test   eax,eax
  402760:	0f 84 5a 02 00 00    	je     4029c0 <_glob_match+0x2d0>
  402766:	8b 55 cc             	mov    edx,DWORD PTR [ebp-0x34]
  402769:	8d 45 d8             	lea    eax,[ebp-0x28]
  40276c:	89 04 24             	mov    DWORD PTR [esp],eax
  40276f:	8b 4d a4             	mov    ecx,DWORD PTR [ebp-0x5c]
  402772:	8b 45 b8             	mov    eax,DWORD PTR [ebp-0x48]
  402775:	80 ce 80             	or     dh,0x80
  402778:	e8 73 ff ff ff       	call   4026f0 <_glob_match>
  40277d:	85 c0                	test   eax,eax
  40277f:	75 ca                	jne    40274b <_glob_match+0x5b>
  402781:	0f b6 43 01          	movzx  eax,BYTE PTR [ebx+0x1]
  402785:	3c 5c                	cmp    al,0x5c
  402787:	0f 84 5b 03 00 00    	je     402ae8 <_glob_match+0x3f8>
  40278d:	3c 2f                	cmp    al,0x2f
  40278f:	0f 84 53 03 00 00    	je     402ae8 <_glob_match+0x3f8>
  402795:	8b 75 b8             	mov    esi,DWORD PTR [ebp-0x48]
  402798:	bf 30 a1 40 00       	mov    edi,0x40a130
  40279d:	b9 02 00 00 00       	mov    ecx,0x2
  4027a2:	f3 a6                	repz cmps BYTE PTR ds:[esi],BYTE PTR es:[edi]
  4027a4:	0f 85 3e 03 00 00    	jne    402ae8 <_glob_match+0x3f8>
  4027aa:	c6 45 a3 5c          	mov    BYTE PTR [ebp-0x5d],0x5c
  4027ae:	f6 45 cc 10          	test   BYTE PTR [ebp-0x34],0x10
  4027b2:	89 5d c0             	mov    DWORD PTR [ebp-0x40],ebx
  4027b5:	c7 45 b8 00 00 00 00 	mov    DWORD PTR [ebp-0x48],0x0
  4027bc:	0f 85 33 04 00 00    	jne    402bf5 <_glob_match+0x505>
  4027c2:	8b 45 e0             	mov    eax,DWORD PTR [ebp-0x20]
  4027c5:	89 45 c8             	mov    DWORD PTR [ebp-0x38],eax
  4027c8:	8b 00                	mov    eax,DWORD PTR [eax]
  4027ca:	85 c0                	test   eax,eax
  4027cc:	0f 84 71 04 00 00    	je     402c43 <_glob_match+0x553>
  4027d2:	8b 4d cc             	mov    ecx,DWORD PTR [ebp-0x34]
  4027d5:	c7 45 c4 02 00 00 00 	mov    DWORD PTR [ebp-0x3c],0x2
  4027dc:	89 cf                	mov    edi,ecx
  4027de:	83 e7 04             	and    edi,0x4
  4027e1:	89 7d 98             	mov    DWORD PTR [ebp-0x68],edi
  4027e4:	89 cf                	mov    edi,ecx
  4027e6:	81 e7 00 80 00 00    	and    edi,0x8000
  4027ec:	89 7d d0             	mov    DWORD PTR [ebp-0x30],edi
  4027ef:	90                   	nop
  4027f0:	83 7d c4 01          	cmp    DWORD PTR [ebp-0x3c],0x1
  4027f4:	0f 84 58 02 00 00    	je     402a52 <_glob_match+0x362>
  4027fa:	89 04 24             	mov    DWORD PTR [esp],eax
  4027fd:	e8 ee 0a 00 00       	call   4032f0 <___mingw_opendir>
  402802:	85 c0                	test   eax,eax
  402804:	89 45 d4             	mov    DWORD PTR [ebp-0x2c],eax
  402807:	0f 84 76 03 00 00    	je     402b83 <_glob_match+0x493>
  40280d:	8b 45 b8             	mov    eax,DWORD PTR [ebp-0x48]
  402810:	85 c0                	test   eax,eax
  402812:	0f 84 bd 03 00 00    	je     402bd5 <_glob_match+0x4e5>
  402818:	8b 45 c8             	mov    eax,DWORD PTR [ebp-0x38]
  40281b:	8b 00                	mov    eax,DWORD PTR [eax]
  40281d:	89 04 24             	mov    DWORD PTR [esp],eax
  402820:	e8 8b 58 00 00       	call   4080b0 <_strlen>
  402825:	89 45 b4             	mov    DWORD PTR [ebp-0x4c],eax
  402828:	8b 45 cc             	mov    eax,DWORD PTR [ebp-0x34]
  40282b:	c7 45 bc 00 00 00 00 	mov    DWORD PTR [ebp-0x44],0x0
  402832:	83 e0 40             	and    eax,0x40
  402835:	89 45 a8             	mov    DWORD PTR [ebp-0x58],eax
  402838:	8b 45 d4             	mov    eax,DWORD PTR [ebp-0x2c]
  40283b:	89 04 24             	mov    DWORD PTR [esp],eax
  40283e:	e8 4d 0c 00 00       	call   403490 <___mingw_readdir>
  402843:	85 c0                	test   eax,eax
  402845:	89 c6                	mov    esi,eax
  402847:	0f 84 e8 01 00 00    	je     402a35 <_glob_match+0x345>
  40284d:	8b 45 d0             	mov    eax,DWORD PTR [ebp-0x30]
  402850:	85 c0                	test   eax,eax
  402852:	74 06                	je     40285a <_glob_match+0x16a>
  402854:	83 7e 08 10          	cmp    DWORD PTR [esi+0x8],0x10
  402858:	75 de                	jne    402838 <_glob_match+0x148>
  40285a:	8b 4d cc             	mov    ecx,DWORD PTR [ebp-0x34]
  40285d:	8d 5e 0c             	lea    ebx,[esi+0xc]
  402860:	8b 45 c0             	mov    eax,DWORD PTR [ebp-0x40]
  402863:	89 da                	mov    edx,ebx
  402865:	e8 36 fb ff ff       	call   4023a0 <_glob_strcmp>
  40286a:	85 c0                	test   eax,eax
  40286c:	75 ca                	jne    402838 <_glob_match+0x148>
  40286e:	0f b7 56 06          	movzx  edx,WORD PTR [esi+0x6]
  402872:	8b 4d b4             	mov    ecx,DWORD PTR [ebp-0x4c]
  402875:	89 65 b0             	mov    DWORD PTR [ebp-0x50],esp
  402878:	8d 44 11 11          	lea    eax,[ecx+edx*1+0x11]
  40287c:	83 e0 f0             	and    eax,0xfffffff0
  40287f:	e8 ec f7 ff ff       	call   402070 <___chkstk_ms>
  402884:	29 c4                	sub    esp,eax
  402886:	31 c0                	xor    eax,eax
  402888:	8d 7c 24 0c          	lea    edi,[esp+0xc]
  40288c:	85 c9                	test   ecx,ecx
  40288e:	89 7d ac             	mov    DWORD PTR [ebp-0x54],edi
  402891:	0f 85 ed 01 00 00    	jne    402a84 <_glob_match+0x394>
  402897:	83 c2 01             	add    edx,0x1
  40289a:	01 f8                	add    eax,edi
  40289c:	89 54 24 08          	mov    DWORD PTR [esp+0x8],edx
  4028a0:	89 5c 24 04          	mov    DWORD PTR [esp+0x4],ebx
  4028a4:	89 e3                	mov    ebx,esp
  4028a6:	89 04 24             	mov    DWORD PTR [esp],eax
  4028a9:	e8 2a 58 00 00       	call   4080d8 <_memcpy>
  4028ae:	89 3c 24             	mov    DWORD PTR [esp],edi
  4028b1:	e8 fa 57 00 00       	call   4080b0 <_strlen>
  4028b6:	83 c0 10             	add    eax,0x10
  4028b9:	83 e0 f0             	and    eax,0xfffffff0
  4028bc:	e8 af f7 ff ff       	call   402070 <___chkstk_ms>
  4028c1:	8b 75 ac             	mov    esi,DWORD PTR [ebp-0x54]
  4028c4:	29 c4                	sub    esp,eax
  4028c6:	8d 4c 24 0c          	lea    ecx,[esp+0xc]
  4028ca:	89 ca                	mov    edx,ecx
  4028cc:	eb 0f                	jmp    4028dd <_glob_match+0x1ed>
  4028ce:	66 90                	xchg   ax,ax
  4028d0:	83 c2 01             	add    edx,0x1
  4028d3:	83 c6 01             	add    esi,0x1
  4028d6:	84 c0                	test   al,al
  4028d8:	88 42 ff             	mov    BYTE PTR [edx-0x1],al
  4028db:	74 1b                	je     4028f8 <_glob_match+0x208>
  4028dd:	0f b6 06             	movzx  eax,BYTE PTR [esi]
  4028e0:	3c 7f                	cmp    al,0x7f
  4028e2:	75 ec                	jne    4028d0 <_glob_match+0x1e0>
  4028e4:	0f b6 46 01          	movzx  eax,BYTE PTR [esi+0x1]
  4028e8:	83 c6 01             	add    esi,0x1
  4028eb:	83 c2 01             	add    edx,0x1
  4028ee:	83 c6 01             	add    esi,0x1
  4028f1:	84 c0                	test   al,al
  4028f3:	88 42 ff             	mov    BYTE PTR [edx-0x1],al
  4028f6:	75 e5                	jne    4028dd <_glob_match+0x1ed>
  4028f8:	89 0c 24             	mov    DWORD PTR [esp],ecx
  4028fb:	e8 70 5b 00 00       	call   408470 <_strdup>
  402900:	89 dc                	mov    esp,ebx
  402902:	85 c0                	test   eax,eax
  402904:	89 c6                	mov    esi,eax
  402906:	0f 84 c6 01 00 00    	je     402ad2 <_glob_match+0x3e2>
  40290c:	31 c0                	xor    eax,eax
  40290e:	83 7d c4 02          	cmp    DWORD PTR [ebp-0x3c],0x2
  402912:	0f 94 c0             	sete   al
  402915:	83 e8 01             	sub    eax,0x1
  402918:	21 45 c4             	and    DWORD PTR [ebp-0x3c],eax
  40291b:	8b 45 a8             	mov    eax,DWORD PTR [ebp-0x58]
  40291e:	85 c0                	test   eax,eax
  402920:	0f 85 9d 01 00 00    	jne    402ac3 <_glob_match+0x3d3>
  402926:	8b 5d bc             	mov    ebx,DWORD PTR [ebp-0x44]
  402929:	85 db                	test   ebx,ebx
  40292b:	0f 84 bb 02 00 00    	je     402bec <_glob_match+0x4fc>
  402931:	8b 7d cc             	mov    edi,DWORD PTR [ebp-0x34]
  402934:	81 e7 00 40 00 00    	and    edi,0x4000
  40293a:	eb 18                	jmp    402954 <_glob_match+0x264>
  40293c:	8d 74 26 00          	lea    esi,[esi+eiz*1+0x0]
  402940:	e8 c3 57 00 00       	call   408108 <_strcoll>
  402945:	8b 0b                	mov    ecx,DWORD PTR [ebx]
  402947:	8b 53 04             	mov    edx,DWORD PTR [ebx+0x4]
  40294a:	85 c0                	test   eax,eax
  40294c:	7e 22                	jle    402970 <_glob_match+0x280>
  40294e:	85 d2                	test   edx,edx
  402950:	74 24                	je     402976 <_glob_match+0x286>
  402952:	89 d3                	mov    ebx,edx
  402954:	8b 43 08             	mov    eax,DWORD PTR [ebx+0x8]
  402957:	85 ff                	test   edi,edi
  402959:	89 34 24             	mov    DWORD PTR [esp],esi
  40295c:	89 44 24 04          	mov    DWORD PTR [esp+0x4],eax
  402960:	75 de                	jne    402940 <_glob_match+0x250>
  402962:	e8 11 5b 00 00       	call   408478 <_stricoll>
  402967:	8b 0b                	mov    ecx,DWORD PTR [ebx]
  402969:	8b 53 04             	mov    edx,DWORD PTR [ebx+0x4]
  40296c:	85 c0                	test   eax,eax
  40296e:	7f de                	jg     40294e <_glob_match+0x25e>
  402970:	89 ca                	mov    edx,ecx
  402972:	85 d2                	test   edx,edx
  402974:	75 dc                	jne    402952 <_glob_match+0x262>
  402976:	89 c1                	mov    ecx,eax
  402978:	89 4d ac             	mov    DWORD PTR [ebp-0x54],ecx
  40297b:	c7 04 24 0c 00 00 00 	mov    DWORD PTR [esp],0xc
  402982:	e8 69 57 00 00       	call   4080f0 <_malloc>
  402987:	85 c0                	test   eax,eax
  402989:	74 22                	je     4029ad <_glob_match+0x2bd>
  40298b:	85 db                	test   ebx,ebx
  40298d:	89 70 08             	mov    DWORD PTR [eax+0x8],esi
  402990:	c7 40 04 00 00 00 00 	mov    DWORD PTR [eax+0x4],0x0
  402997:	c7 00 00 00 00 00    	mov    DWORD PTR [eax],0x0
  40299d:	74 0e                	je     4029ad <_glob_match+0x2bd>
  40299f:	8b 4d ac             	mov    ecx,DWORD PTR [ebp-0x54]
  4029a2:	85 c9                	test   ecx,ecx
  4029a4:	0f 8e 16 02 00 00    	jle    402bc0 <_glob_match+0x4d0>
  4029aa:	89 43 04             	mov    DWORD PTR [ebx+0x4],eax
  4029ad:	8b 7d bc             	mov    edi,DWORD PTR [ebp-0x44]
  4029b0:	85 ff                	test   edi,edi
  4029b2:	0f 84 15 02 00 00    	je     402bcd <_glob_match+0x4dd>
  4029b8:	8b 65 b0             	mov    esp,DWORD PTR [ebp-0x50]
  4029bb:	e9 78 fe ff ff       	jmp    402838 <_glob_match+0x148>
  4029c0:	8b 45 b8             	mov    eax,DWORD PTR [ebp-0x48]
  4029c3:	89 e6                	mov    esi,esp
  4029c5:	89 04 24             	mov    DWORD PTR [esp],eax
  4029c8:	e8 e3 56 00 00       	call   4080b0 <_strlen>
  4029cd:	83 c0 10             	add    eax,0x10
  4029d0:	83 e0 f0             	and    eax,0xfffffff0
  4029d3:	e8 98 f6 ff ff       	call   402070 <___chkstk_ms>
  4029d8:	8b 55 b8             	mov    edx,DWORD PTR [ebp-0x48]
  4029db:	29 c4                	sub    esp,eax
  4029dd:	8d 7c 24 0c          	lea    edi,[esp+0xc]
  4029e1:	89 f9                	mov    ecx,edi
  4029e3:	eb 0d                	jmp    4029f2 <_glob_match+0x302>
  4029e5:	83 c1 01             	add    ecx,0x1
  4029e8:	83 c2 01             	add    edx,0x1
  4029eb:	84 c0                	test   al,al
  4029ed:	88 41 ff             	mov    BYTE PTR [ecx-0x1],al
  4029f0:	74 1b                	je     402a0d <_glob_match+0x31d>
  4029f2:	0f b6 02             	movzx  eax,BYTE PTR [edx]
  4029f5:	3c 7f                	cmp    al,0x7f
  4029f7:	75 ec                	jne    4029e5 <_glob_match+0x2f5>
  4029f9:	0f b6 42 01          	movzx  eax,BYTE PTR [edx+0x1]
  4029fd:	83 c2 01             	add    edx,0x1
  402a00:	83 c1 01             	add    ecx,0x1
  402a03:	83 c2 01             	add    edx,0x1
  402a06:	84 c0                	test   al,al
  402a08:	88 41 ff             	mov    BYTE PTR [ecx-0x1],al
  402a0b:	75 e5                	jne    4029f2 <_glob_match+0x302>
  402a0d:	89 3c 24             	mov    DWORD PTR [esp],edi
  402a10:	e8 5b 5a 00 00       	call   408470 <_strdup>
  402a15:	89 f4                	mov    esp,esi
  402a17:	89 c1                	mov    ecx,eax
  402a19:	b8 01 00 00 00       	mov    eax,0x1
  402a1e:	85 c9                	test   ecx,ecx
  402a20:	0f 84 25 fd ff ff    	je     40274b <_glob_match+0x5b>
  402a26:	8d 55 d8             	lea    edx,[ebp-0x28]
  402a29:	89 c8                	mov    eax,ecx
  402a2b:	e8 f0 fb ff ff       	call   402620 <_glob_store_entry.part.2>
  402a30:	e9 48 fd ff ff       	jmp    40277d <_glob_match+0x8d>
  402a35:	8b 45 d4             	mov    eax,DWORD PTR [ebp-0x2c]
  402a38:	89 04 24             	mov    DWORD PTR [esp],eax
  402a3b:	e8 a0 0a 00 00       	call   4034e0 <___mingw_closedir>
  402a40:	8b 75 bc             	mov    esi,DWORD PTR [ebp-0x44]
  402a43:	85 f6                	test   esi,esi
  402a45:	74 0b                	je     402a52 <_glob_match+0x362>
  402a47:	8b 55 08             	mov    edx,DWORD PTR [ebp+0x8]
  402a4a:	8b 45 bc             	mov    eax,DWORD PTR [ebp-0x44]
  402a4d:	e8 5e fc ff ff       	call   4026b0 <_glob_store_collated_entries>
  402a52:	83 45 c8 04          	add    DWORD PTR [ebp-0x38],0x4
  402a56:	8b 7d c8             	mov    edi,DWORD PTR [ebp-0x38]
  402a59:	8b 47 fc             	mov    eax,DWORD PTR [edi-0x4]
  402a5c:	89 04 24             	mov    DWORD PTR [esp],eax
  402a5f:	e8 84 56 00 00       	call   4080e8 <_free>
  402a64:	8b 07                	mov    eax,DWORD PTR [edi]
  402a66:	85 c0                	test   eax,eax
  402a68:	0f 85 82 fd ff ff    	jne    4027f0 <_glob_match+0x100>
  402a6e:	8b 45 e0             	mov    eax,DWORD PTR [ebp-0x20]
  402a71:	89 04 24             	mov    DWORD PTR [esp],eax
  402a74:	e8 6f 56 00 00       	call   4080e8 <_free>
  402a79:	8b 45 c4             	mov    eax,DWORD PTR [ebp-0x3c]
  402a7c:	8d 65 f4             	lea    esp,[ebp-0xc]
  402a7f:	5b                   	pop    ebx
  402a80:	5e                   	pop    esi
  402a81:	5f                   	pop    edi
  402a82:	5d                   	pop    ebp
  402a83:	c3                   	ret    
  402a84:	8b 45 c8             	mov    eax,DWORD PTR [ebp-0x38]
  402a87:	8b 75 b4             	mov    esi,DWORD PTR [ebp-0x4c]
  402a8a:	89 55 9c             	mov    DWORD PTR [ebp-0x64],edx
  402a8d:	8b 00                	mov    eax,DWORD PTR [eax]
  402a8f:	89 74 24 08          	mov    DWORD PTR [esp+0x8],esi
  402a93:	89 3c 24             	mov    DWORD PTR [esp],edi
  402a96:	89 44 24 04          	mov    DWORD PTR [esp+0x4],eax
  402a9a:	e8 39 56 00 00       	call   4080d8 <_memcpy>
  402a9f:	0f b6 44 34 0b       	movzx  eax,BYTE PTR [esp+esi*1+0xb]
  402aa4:	8b 55 9c             	mov    edx,DWORD PTR [ebp-0x64]
  402aa7:	3c 5c                	cmp    al,0x5c
  402aa9:	74 35                	je     402ae0 <_glob_match+0x3f0>
  402aab:	3c 2f                	cmp    al,0x2f
  402aad:	74 31                	je     402ae0 <_glob_match+0x3f0>
  402aaf:	8b 75 b4             	mov    esi,DWORD PTR [ebp-0x4c]
  402ab2:	0f b6 4d a3          	movzx  ecx,BYTE PTR [ebp-0x5d]
  402ab6:	89 f0                	mov    eax,esi
  402ab8:	83 c0 01             	add    eax,0x1
  402abb:	88 0c 37             	mov    BYTE PTR [edi+esi*1],cl
  402abe:	e9 d4 fd ff ff       	jmp    402897 <_glob_match+0x1a7>
  402ac3:	8b 55 08             	mov    edx,DWORD PTR [ebp+0x8]
  402ac6:	89 f0                	mov    eax,esi
  402ac8:	e8 c3 fb ff ff       	call   402690 <_glob_store_entry>
  402acd:	e9 e6 fe ff ff       	jmp    4029b8 <_glob_match+0x2c8>
  402ad2:	c7 45 c4 03 00 00 00 	mov    DWORD PTR [ebp-0x3c],0x3
  402ad9:	e9 da fe ff ff       	jmp    4029b8 <_glob_match+0x2c8>
  402ade:	66 90                	xchg   ax,ax
  402ae0:	8b 45 b4             	mov    eax,DWORD PTR [ebp-0x4c]
  402ae3:	e9 af fd ff ff       	jmp    402897 <_glob_match+0x1a7>
  402ae8:	8b 45 b8             	mov    eax,DWORD PTR [ebp-0x48]
  402aeb:	89 04 24             	mov    DWORD PTR [esp],eax
  402aee:	e8 bd 55 00 00       	call   4080b0 <_strlen>
  402af3:	01 d8                	add    eax,ebx
  402af5:	39 c3                	cmp    ebx,eax
  402af7:	0f 83 94 01 00 00    	jae    402c91 <_glob_match+0x5a1>
  402afd:	0f b6 10             	movzx  edx,BYTE PTR [eax]
  402b00:	80 fa 2f             	cmp    dl,0x2f
  402b03:	0f 84 7d 01 00 00    	je     402c86 <_glob_match+0x596>
  402b09:	80 fa 5c             	cmp    dl,0x5c
  402b0c:	75 1d                	jne    402b2b <_glob_match+0x43b>
  402b0e:	66 90                	xchg   ax,ax
  402b10:	e9 71 01 00 00       	jmp    402c86 <_glob_match+0x596>
  402b15:	0f b6 40 ff          	movzx  eax,BYTE PTR [eax-0x1]
  402b19:	3c 5c                	cmp    al,0x5c
  402b1b:	0f 84 c0 00 00 00    	je     402be1 <_glob_match+0x4f1>
  402b21:	3c 2f                	cmp    al,0x2f
  402b23:	0f 84 b8 00 00 00    	je     402be1 <_glob_match+0x4f1>
  402b29:	89 d0                	mov    eax,edx
  402b2b:	8d 50 ff             	lea    edx,[eax-0x1]
  402b2e:	39 da                	cmp    edx,ebx
  402b30:	75 e3                	jne    402b15 <_glob_match+0x425>
  402b32:	0f b6 40 ff          	movzx  eax,BYTE PTR [eax-0x1]
  402b36:	89 55 c0             	mov    DWORD PTR [ebp-0x40],edx
  402b39:	88 45 a3             	mov    BYTE PTR [ebp-0x5d],al
  402b3c:	80 7d a3 5c          	cmp    BYTE PTR [ebp-0x5d],0x5c
  402b40:	0f 85 0c 01 00 00    	jne    402c52 <_glob_match+0x562>
  402b46:	8b 45 c0             	mov    eax,DWORD PTR [ebp-0x40]
  402b49:	0f b6 4d a3          	movzx  ecx,BYTE PTR [ebp-0x5d]
  402b4d:	83 c0 01             	add    eax,0x1
  402b50:	0f b6 10             	movzx  edx,BYTE PTR [eax]
  402b53:	80 fa 5c             	cmp    dl,0x5c
  402b56:	75 0d                	jne    402b65 <_glob_match+0x475>
  402b58:	83 c0 01             	add    eax,0x1
  402b5b:	89 d1                	mov    ecx,edx
  402b5d:	0f b6 10             	movzx  edx,BYTE PTR [eax]
  402b60:	80 fa 5c             	cmp    dl,0x5c
  402b63:	74 f3                	je     402b58 <_glob_match+0x468>
  402b65:	80 fa 2f             	cmp    dl,0x2f
  402b68:	74 ee                	je     402b58 <_glob_match+0x468>
  402b6a:	89 45 c0             	mov    DWORD PTR [ebp-0x40],eax
  402b6d:	88 4d a3             	mov    BYTE PTR [ebp-0x5d],cl
  402b70:	8b 45 b8             	mov    eax,DWORD PTR [ebp-0x48]
  402b73:	85 c0                	test   eax,eax
  402b75:	0f 85 47 fc ff ff    	jne    4027c2 <_glob_match+0xd2>
  402b7b:	8b 5d c0             	mov    ebx,DWORD PTR [ebp-0x40]
  402b7e:	e9 2b fc ff ff       	jmp    4027ae <_glob_match+0xbe>
  402b83:	8b 5d 98             	mov    ebx,DWORD PTR [ebp-0x68]
  402b86:	85 db                	test   ebx,ebx
  402b88:	75 28                	jne    402bb2 <_glob_match+0x4c2>
  402b8a:	8b 7d a4             	mov    edi,DWORD PTR [ebp-0x5c]
  402b8d:	85 ff                	test   edi,edi
  402b8f:	0f 84 bd fe ff ff    	je     402a52 <_glob_match+0x362>
  402b95:	e8 76 55 00 00       	call   408110 <__errno>
  402b9a:	8b 00                	mov    eax,DWORD PTR [eax]
  402b9c:	89 44 24 04          	mov    DWORD PTR [esp+0x4],eax
  402ba0:	8b 45 c8             	mov    eax,DWORD PTR [ebp-0x38]
  402ba3:	8b 00                	mov    eax,DWORD PTR [eax]
  402ba5:	89 04 24             	mov    DWORD PTR [esp],eax
  402ba8:	ff d7                	call   edi
  402baa:	85 c0                	test   eax,eax
  402bac:	0f 84 a0 fe ff ff    	je     402a52 <_glob_match+0x362>
  402bb2:	c7 45 c4 01 00 00 00 	mov    DWORD PTR [ebp-0x3c],0x1
  402bb9:	e9 94 fe ff ff       	jmp    402a52 <_glob_match+0x362>
  402bbe:	66 90                	xchg   ax,ax
  402bc0:	8b 7d bc             	mov    edi,DWORD PTR [ebp-0x44]
  402bc3:	89 03                	mov    DWORD PTR [ebx],eax
  402bc5:	85 ff                	test   edi,edi
  402bc7:	0f 85 eb fd ff ff    	jne    4029b8 <_glob_match+0x2c8>
  402bcd:	89 45 bc             	mov    DWORD PTR [ebp-0x44],eax
  402bd0:	e9 e3 fd ff ff       	jmp    4029b8 <_glob_match+0x2c8>
  402bd5:	c7 45 b4 00 00 00 00 	mov    DWORD PTR [ebp-0x4c],0x0
  402bdc:	e9 47 fc ff ff       	jmp    402828 <_glob_match+0x138>
  402be1:	89 55 c0             	mov    DWORD PTR [ebp-0x40],edx
  402be4:	88 45 a3             	mov    BYTE PTR [ebp-0x5d],al
  402be7:	e9 50 ff ff ff       	jmp    402b3c <_glob_match+0x44c>
  402bec:	31 db                	xor    ebx,ebx
  402bee:	31 c9                	xor    ecx,ecx
  402bf0:	e9 83 fd ff ff       	jmp    402978 <_glob_match+0x288>
  402bf5:	8b 55 cc             	mov    edx,DWORD PTR [ebp-0x34]
  402bf8:	89 d8                	mov    eax,ebx
  402bfa:	e8 a1 f4 ff ff       	call   4020a0 <_is_glob_pattern>
  402bff:	85 c0                	test   eax,eax
  402c01:	0f 85 bb fb ff ff    	jne    4027c2 <_glob_match+0xd2>
  402c07:	89 1c 24             	mov    DWORD PTR [esp],ebx
  402c0a:	89 e6                	mov    esi,esp
  402c0c:	e8 9f 54 00 00       	call   4080b0 <_strlen>
  402c11:	83 c0 10             	add    eax,0x10
  402c14:	83 e0 f0             	and    eax,0xfffffff0
  402c17:	e8 54 f4 ff ff       	call   402070 <___chkstk_ms>
  402c1c:	29 c4                	sub    esp,eax
  402c1e:	8d 4c 24 0c          	lea    ecx,[esp+0xc]
  402c22:	89 ca                	mov    edx,ecx
  402c24:	eb 0d                	jmp    402c33 <_glob_match+0x543>
  402c26:	83 c2 01             	add    edx,0x1
  402c29:	83 c3 01             	add    ebx,0x1
  402c2c:	84 c0                	test   al,al
  402c2e:	88 42 ff             	mov    BYTE PTR [edx-0x1],al
  402c31:	74 32                	je     402c65 <_glob_match+0x575>
  402c33:	0f b6 03             	movzx  eax,BYTE PTR [ebx]
  402c36:	3c 7f                	cmp    al,0x7f
  402c38:	75 ec                	jne    402c26 <_glob_match+0x536>
  402c3a:	0f b6 43 01          	movzx  eax,BYTE PTR [ebx+0x1]
  402c3e:	83 c3 01             	add    ebx,0x1
  402c41:	eb e3                	jmp    402c26 <_glob_match+0x536>
  402c43:	8b 45 c8             	mov    eax,DWORD PTR [ebp-0x38]
  402c46:	c7 45 c4 02 00 00 00 	mov    DWORD PTR [ebp-0x3c],0x2
  402c4d:	e9 1f fe ff ff       	jmp    402a71 <_glob_match+0x381>
  402c52:	80 7d a3 2f          	cmp    BYTE PTR [ebp-0x5d],0x2f
  402c56:	0f 84 ea fe ff ff    	je     402b46 <_glob_match+0x456>
  402c5c:	c6 45 a3 5c          	mov    BYTE PTR [ebp-0x5d],0x5c
  402c60:	e9 0b ff ff ff       	jmp    402b70 <_glob_match+0x480>
  402c65:	89 0c 24             	mov    DWORD PTR [esp],ecx
  402c68:	e8 03 58 00 00       	call   408470 <_strdup>
  402c6d:	8b 55 08             	mov    edx,DWORD PTR [ebp+0x8]
  402c70:	89 f4                	mov    esp,esi
  402c72:	e8 19 fa ff ff       	call   402690 <_glob_store_entry>
  402c77:	8b 45 e0             	mov    eax,DWORD PTR [ebp-0x20]
  402c7a:	c7 45 c4 00 00 00 00 	mov    DWORD PTR [ebp-0x3c],0x0
  402c81:	e9 eb fd ff ff       	jmp    402a71 <_glob_match+0x381>
  402c86:	88 55 a3             	mov    BYTE PTR [ebp-0x5d],dl
  402c89:	89 45 c0             	mov    DWORD PTR [ebp-0x40],eax
  402c8c:	e9 ab fe ff ff       	jmp    402b3c <_glob_match+0x44c>
  402c91:	0f b6 08             	movzx  ecx,BYTE PTR [eax]
  402c94:	89 45 c0             	mov    DWORD PTR [ebp-0x40],eax
  402c97:	88 4d a3             	mov    BYTE PTR [ebp-0x5d],cl
  402c9a:	e9 9d fe ff ff       	jmp    402b3c <_glob_match+0x44c>
  402c9f:	90                   	nop

00402ca0 <___mingw_glob>:
  402ca0:	55                   	push   ebp
  402ca1:	89 e5                	mov    ebp,esp
  402ca3:	57                   	push   edi
  402ca4:	56                   	push   esi
  402ca5:	53                   	push   ebx
  402ca6:	83 ec 1c             	sub    esp,0x1c
  402ca9:	8b 75 14             	mov    esi,DWORD PTR [ebp+0x14]
  402cac:	8b 5d 08             	mov    ebx,DWORD PTR [ebp+0x8]
  402caf:	81 3e 32 a1 40 00    	cmp    DWORD PTR [esi],0x40a132
  402cb5:	74 0d                	je     402cc4 <___mingw_glob+0x24>
  402cb7:	89 f0                	mov    eax,esi
  402cb9:	e8 82 f6 ff ff       	call   402340 <_glob_initialise>
  402cbe:	c7 06 32 a1 40 00    	mov    DWORD PTR [esi],0x40a132
  402cc4:	89 34 24             	mov    DWORD PTR [esp],esi
  402cc7:	8b 4d 10             	mov    ecx,DWORD PTR [ebp+0x10]
  402cca:	89 d8                	mov    eax,ebx
  402ccc:	8b 55 0c             	mov    edx,DWORD PTR [ebp+0xc]
  402ccf:	e8 1c fa ff ff       	call   4026f0 <_glob_match>
  402cd4:	83 f8 02             	cmp    eax,0x2
  402cd7:	89 c7                	mov    edi,eax
  402cd9:	74 0a                	je     402ce5 <___mingw_glob+0x45>
  402cdb:	8d 65 f4             	lea    esp,[ebp-0xc]
  402cde:	89 f8                	mov    eax,edi
  402ce0:	5b                   	pop    ebx
  402ce1:	5e                   	pop    esi
  402ce2:	5f                   	pop    edi
  402ce3:	5d                   	pop    ebp
  402ce4:	c3                   	ret    
  402ce5:	f6 45 0c 10          	test   BYTE PTR [ebp+0xc],0x10
  402ce9:	74 f0                	je     402cdb <___mingw_glob+0x3b>
  402ceb:	89 65 e4             	mov    DWORD PTR [ebp-0x1c],esp
  402cee:	89 1c 24             	mov    DWORD PTR [esp],ebx
  402cf1:	e8 ba 53 00 00       	call   4080b0 <_strlen>
  402cf6:	83 c0 10             	add    eax,0x10
  402cf9:	83 e0 f0             	and    eax,0xfffffff0
  402cfc:	e8 6f f3 ff ff       	call   402070 <___chkstk_ms>
  402d01:	29 c4                	sub    esp,eax
  402d03:	8d 4c 24 04          	lea    ecx,[esp+0x4]
  402d07:	89 ca                	mov    edx,ecx
  402d09:	eb 12                	jmp    402d1d <___mingw_glob+0x7d>
  402d0b:	90                   	nop
  402d0c:	8d 74 26 00          	lea    esi,[esi+eiz*1+0x0]
  402d10:	83 c2 01             	add    edx,0x1
  402d13:	83 c3 01             	add    ebx,0x1
  402d16:	84 c0                	test   al,al
  402d18:	88 42 ff             	mov    BYTE PTR [edx-0x1],al
  402d1b:	74 1b                	je     402d38 <___mingw_glob+0x98>
  402d1d:	0f b6 03             	movzx  eax,BYTE PTR [ebx]
  402d20:	3c 7f                	cmp    al,0x7f
  402d22:	75 ec                	jne    402d10 <___mingw_glob+0x70>
  402d24:	0f b6 43 01          	movzx  eax,BYTE PTR [ebx+0x1]
  402d28:	83 c3 01             	add    ebx,0x1
  402d2b:	83 c2 01             	add    edx,0x1
  402d2e:	83 c3 01             	add    ebx,0x1
  402d31:	84 c0                	test   al,al
  402d33:	88 42 ff             	mov    BYTE PTR [edx-0x1],al
  402d36:	75 e5                	jne    402d1d <___mingw_glob+0x7d>
  402d38:	89 0c 24             	mov    DWORD PTR [esp],ecx
  402d3b:	e8 30 57 00 00       	call   408470 <_strdup>
  402d40:	8b 65 e4             	mov    esp,DWORD PTR [ebp-0x1c]
  402d43:	89 f2                	mov    edx,esi
  402d45:	e8 46 f9 ff ff       	call   402690 <_glob_store_entry>
  402d4a:	8d 65 f4             	lea    esp,[ebp-0xc]
  402d4d:	89 f8                	mov    eax,edi
  402d4f:	5b                   	pop    ebx
  402d50:	5e                   	pop    esi
  402d51:	5f                   	pop    edi
  402d52:	5d                   	pop    ebp
  402d53:	c3                   	ret    
  402d54:	8d b6 00 00 00 00    	lea    esi,[esi+0x0]
  402d5a:	8d bf 00 00 00 00    	lea    edi,[edi+0x0]

00402d60 <___mingw_globfree>:
  402d60:	8b 44 24 04          	mov    eax,DWORD PTR [esp+0x4]
  402d64:	81 38 32 a1 40 00    	cmp    DWORD PTR [eax],0x40a132
  402d6a:	74 04                	je     402d70 <___mingw_globfree+0x10>
  402d6c:	f3 c3                	repz ret 
  402d6e:	66 90                	xchg   ax,ax
  402d70:	e9 5b f8 ff ff       	jmp    4025d0 <_glob_registry.part.1>
  402d75:	90                   	nop
  402d76:	90                   	nop
  402d77:	90                   	nop
  402d78:	90                   	nop
  402d79:	90                   	nop
  402d7a:	90                   	nop
  402d7b:	90                   	nop
  402d7c:	90                   	nop
  402d7d:	90                   	nop
  402d7e:	90                   	nop
  402d7f:	90                   	nop

00402d80 <___mingw_dirname>:
  402d80:	55                   	push   ebp
  402d81:	89 e5                	mov    ebp,esp
  402d83:	57                   	push   edi
  402d84:	56                   	push   esi
  402d85:	53                   	push   ebx
  402d86:	83 ec 3c             	sub    esp,0x3c
  402d89:	8b 75 08             	mov    esi,DWORD PTR [ebp+0x8]
  402d8c:	c7 44 24 04 00 00 00 	mov    DWORD PTR [esp+0x4],0x0
  402d93:	00 
  402d94:	c7 04 24 02 00 00 00 	mov    DWORD PTR [esp],0x2
  402d9b:	e8 78 53 00 00       	call   408118 <_setlocale>
  402da0:	85 c0                	test   eax,eax
  402da2:	89 c3                	mov    ebx,eax
  402da4:	74 0a                	je     402db0 <___mingw_dirname+0x30>
  402da6:	89 04 24             	mov    DWORD PTR [esp],eax
  402da9:	e8 c2 56 00 00       	call   408470 <_strdup>
  402dae:	89 c3                	mov    ebx,eax
  402db0:	c7 44 24 04 44 a1 40 	mov    DWORD PTR [esp+0x4],0x40a144
  402db7:	00 
  402db8:	c7 04 24 02 00 00 00 	mov    DWORD PTR [esp],0x2
  402dbf:	e8 54 53 00 00       	call   408118 <_setlocale>
  402dc4:	85 f6                	test   esi,esi
  402dc6:	74 05                	je     402dcd <___mingw_dirname+0x4d>
  402dc8:	80 3e 00             	cmp    BYTE PTR [esi],0x0
  402dcb:	75 73                	jne    402e40 <___mingw_dirname+0xc0>
  402dcd:	c7 44 24 08 00 00 00 	mov    DWORD PTR [esp+0x8],0x0
  402dd4:	00 
  402dd5:	c7 44 24 04 46 a1 40 	mov    DWORD PTR [esp+0x4],0x40a146
  402ddc:	00 
  402ddd:	c7 04 24 00 00 00 00 	mov    DWORD PTR [esp],0x0
  402de4:	e8 37 53 00 00       	call   408120 <_wcstombs>
  402de9:	8d 70 01             	lea    esi,[eax+0x1]
  402dec:	89 74 24 04          	mov    DWORD PTR [esp+0x4],esi
  402df0:	a1 68 d0 40 00       	mov    eax,ds:0x40d068
  402df5:	89 04 24             	mov    DWORD PTR [esp],eax
  402df8:	e8 03 53 00 00       	call   408100 <_realloc>
  402dfd:	a3 68 d0 40 00       	mov    ds:0x40d068,eax
  402e02:	89 74 24 08          	mov    DWORD PTR [esp+0x8],esi
  402e06:	c7 44 24 04 46 a1 40 	mov    DWORD PTR [esp+0x4],0x40a146
  402e0d:	00 
  402e0e:	89 04 24             	mov    DWORD PTR [esp],eax
  402e11:	e8 0a 53 00 00       	call   408120 <_wcstombs>
  402e16:	89 5c 24 04          	mov    DWORD PTR [esp+0x4],ebx
  402e1a:	c7 04 24 02 00 00 00 	mov    DWORD PTR [esp],0x2
  402e21:	e8 f2 52 00 00       	call   408118 <_setlocale>
  402e26:	89 1c 24             	mov    DWORD PTR [esp],ebx
  402e29:	e8 ba 52 00 00       	call   4080e8 <_free>
  402e2e:	a1 68 d0 40 00       	mov    eax,ds:0x40d068
  402e33:	8d 65 f4             	lea    esp,[ebp-0xc]
  402e36:	5b                   	pop    ebx
  402e37:	5e                   	pop    esi
  402e38:	5f                   	pop    edi
  402e39:	5d                   	pop    ebp
  402e3a:	c3                   	ret    
  402e3b:	90                   	nop
  402e3c:	8d 74 26 00          	lea    esi,[esi+eiz*1+0x0]
  402e40:	89 65 d4             	mov    DWORD PTR [ebp-0x2c],esp
  402e43:	c7 44 24 08 00 00 00 	mov    DWORD PTR [esp+0x8],0x0
  402e4a:	00 
  402e4b:	89 74 24 04          	mov    DWORD PTR [esp+0x4],esi
  402e4f:	c7 04 24 00 00 00 00 	mov    DWORD PTR [esp],0x0
  402e56:	e8 cd 52 00 00       	call   408128 <_mbstowcs>
  402e5b:	89 c2                	mov    edx,eax
  402e5d:	8d 44 00 12          	lea    eax,[eax+eax*1+0x12]
  402e61:	83 e0 f0             	and    eax,0xfffffff0
  402e64:	e8 07 f2 ff ff       	call   402070 <___chkstk_ms>
  402e69:	29 c4                	sub    esp,eax
  402e6b:	8d 44 24 0d          	lea    eax,[esp+0xd]
  402e6f:	89 45 e4             	mov    DWORD PTR [ebp-0x1c],eax
  402e72:	d1 6d e4             	shr    DWORD PTR [ebp-0x1c],1
  402e75:	8b 45 e4             	mov    eax,DWORD PTR [ebp-0x1c]
  402e78:	01 c0                	add    eax,eax
  402e7a:	89 45 e0             	mov    DWORD PTR [ebp-0x20],eax
  402e7d:	89 c7                	mov    edi,eax
  402e7f:	89 54 24 08          	mov    DWORD PTR [esp+0x8],edx
  402e83:	89 74 24 04          	mov    DWORD PTR [esp+0x4],esi
  402e87:	89 04 24             	mov    DWORD PTR [esp],eax
  402e8a:	e8 99 52 00 00       	call   408128 <_mbstowcs>
  402e8f:	31 c9                	xor    ecx,ecx
  402e91:	66 89 0c 47          	mov    WORD PTR [edi+eax*2],cx
  402e95:	83 f8 01             	cmp    eax,0x1
  402e98:	89 45 d0             	mov    DWORD PTR [ebp-0x30],eax
  402e9b:	8b 45 e4             	mov    eax,DWORD PTR [ebp-0x1c]
  402e9e:	0f b7 04 00          	movzx  eax,WORD PTR [eax+eax*1]
  402ea2:	66 89 45 da          	mov    WORD PTR [ebp-0x26],ax
  402ea6:	0f 86 f2 00 00 00    	jbe    402f9e <___mingw_dirname+0x21e>
  402eac:	66 83 f8 5c          	cmp    ax,0x5c
  402eb0:	74 0a                	je     402ebc <___mingw_dirname+0x13c>
  402eb2:	66 83 f8 2f          	cmp    ax,0x2f
  402eb6:	0f 85 0a 01 00 00    	jne    402fc6 <___mingw_dirname+0x246>
  402ebc:	8b 7d e0             	mov    edi,DWORD PTR [ebp-0x20]
  402ebf:	89 7d dc             	mov    DWORD PTR [ebp-0x24],edi
  402ec2:	8b 7d e4             	mov    edi,DWORD PTR [ebp-0x1c]
  402ec5:	66 3b 44 3f 02       	cmp    ax,WORD PTR [edi+edi*1+0x2]
  402eca:	0f 84 4f 02 00 00    	je     40311f <___mingw_dirname+0x39f>
  402ed0:	0f b7 45 da          	movzx  eax,WORD PTR [ebp-0x26]
  402ed4:	66 85 c0             	test   ax,ax
  402ed7:	0f 84 fa 01 00 00    	je     4030d7 <___mingw_dirname+0x357>
  402edd:	8b 55 dc             	mov    edx,DWORD PTR [ebp-0x24]
  402ee0:	89 d7                	mov    edi,edx
  402ee2:	eb 14                	jmp    402ef8 <___mingw_dirname+0x178>
  402ee4:	66 83 f8 2f          	cmp    ax,0x2f
  402ee8:	74 20                	je     402f0a <___mingw_dirname+0x18a>
  402eea:	0f b7 42 02          	movzx  eax,WORD PTR [edx+0x2]
  402eee:	8d 4a 02             	lea    ecx,[edx+0x2]
  402ef1:	66 85 c0             	test   ax,ax
  402ef4:	74 36                	je     402f2c <___mingw_dirname+0x1ac>
  402ef6:	89 ca                	mov    edx,ecx
  402ef8:	66 83 f8 5c          	cmp    ax,0x5c
  402efc:	75 e6                	jne    402ee4 <___mingw_dirname+0x164>
  402efe:	0f b7 02             	movzx  eax,WORD PTR [edx]
  402f01:	66 83 f8 5c          	cmp    ax,0x5c
  402f05:	75 0c                	jne    402f13 <___mingw_dirname+0x193>
  402f07:	83 c2 02             	add    edx,0x2
  402f0a:	0f b7 02             	movzx  eax,WORD PTR [edx]
  402f0d:	66 83 f8 5c          	cmp    ax,0x5c
  402f11:	74 f4                	je     402f07 <___mingw_dirname+0x187>
  402f13:	66 83 f8 2f          	cmp    ax,0x2f
  402f17:	74 ee                	je     402f07 <___mingw_dirname+0x187>
  402f19:	66 85 c0             	test   ax,ax
  402f1c:	74 0e                	je     402f2c <___mingw_dirname+0x1ac>
  402f1e:	0f b7 42 02          	movzx  eax,WORD PTR [edx+0x2]
  402f22:	89 d7                	mov    edi,edx
  402f24:	8d 4a 02             	lea    ecx,[edx+0x2]
  402f27:	66 85 c0             	test   ax,ax
  402f2a:	75 ca                	jne    402ef6 <___mingw_dirname+0x176>
  402f2c:	8b 4d dc             	mov    ecx,DWORD PTR [ebp-0x24]
  402f2f:	39 f9                	cmp    ecx,edi
  402f31:	72 7e                	jb     402fb1 <___mingw_dirname+0x231>
  402f33:	66 83 7d da 5c       	cmp    WORD PTR [ebp-0x26],0x5c
  402f38:	74 0b                	je     402f45 <___mingw_dirname+0x1c5>
  402f3a:	66 83 7d da 2f       	cmp    WORD PTR [ebp-0x26],0x2f
  402f3f:	0f 85 ba 01 00 00    	jne    4030ff <___mingw_dirname+0x37f>
  402f45:	8b 45 dc             	mov    eax,DWORD PTR [ebp-0x24]
  402f48:	83 c0 02             	add    eax,0x2
  402f4b:	31 d2                	xor    edx,edx
  402f4d:	66 89 10             	mov    WORD PTR [eax],dx
  402f50:	c7 44 24 08 00 00 00 	mov    DWORD PTR [esp+0x8],0x0
  402f57:	00 
  402f58:	8b 45 e0             	mov    eax,DWORD PTR [ebp-0x20]
  402f5b:	c7 04 24 00 00 00 00 	mov    DWORD PTR [esp],0x0
  402f62:	89 44 24 04          	mov    DWORD PTR [esp+0x4],eax
  402f66:	e8 b5 51 00 00       	call   408120 <_wcstombs>
  402f6b:	8d 78 01             	lea    edi,[eax+0x1]
  402f6e:	89 7c 24 04          	mov    DWORD PTR [esp+0x4],edi
  402f72:	a1 68 d0 40 00       	mov    eax,ds:0x40d068
  402f77:	89 04 24             	mov    DWORD PTR [esp],eax
  402f7a:	e8 81 51 00 00       	call   408100 <_realloc>
  402f7f:	a3 68 d0 40 00       	mov    ds:0x40d068,eax
  402f84:	89 c6                	mov    esi,eax
  402f86:	89 7c 24 08          	mov    DWORD PTR [esp+0x8],edi
  402f8a:	8b 45 e0             	mov    eax,DWORD PTR [ebp-0x20]
  402f8d:	89 34 24             	mov    DWORD PTR [esp],esi
  402f90:	89 44 24 04          	mov    DWORD PTR [esp+0x4],eax
  402f94:	e8 87 51 00 00       	call   408120 <_wcstombs>
  402f99:	e9 e9 00 00 00       	jmp    403087 <___mingw_dirname+0x307>
  402f9e:	8b 45 e0             	mov    eax,DWORD PTR [ebp-0x20]
  402fa1:	89 45 dc             	mov    DWORD PTR [ebp-0x24],eax
  402fa4:	e9 27 ff ff ff       	jmp    402ed0 <___mingw_dirname+0x150>
  402fa9:	66 83 fa 2f          	cmp    dx,0x2f
  402fad:	75 46                	jne    402ff5 <___mingw_dirname+0x275>
  402faf:	89 c7                	mov    edi,eax
  402fb1:	8d 47 fe             	lea    eax,[edi-0x2]
  402fb4:	39 c1                	cmp    ecx,eax
  402fb6:	73 3d                	jae    402ff5 <___mingw_dirname+0x275>
  402fb8:	0f b7 57 fe          	movzx  edx,WORD PTR [edi-0x2]
  402fbc:	66 83 fa 5c          	cmp    dx,0x5c
  402fc0:	75 e7                	jne    402fa9 <___mingw_dirname+0x229>
  402fc2:	89 c7                	mov    edi,eax
  402fc4:	eb eb                	jmp    402fb1 <___mingw_dirname+0x231>
  402fc6:	8b 45 e0             	mov    eax,DWORD PTR [ebp-0x20]
  402fc9:	89 45 dc             	mov    DWORD PTR [ebp-0x24],eax
  402fcc:	8b 45 e4             	mov    eax,DWORD PTR [ebp-0x1c]
  402fcf:	66 83 7c 00 02 3a    	cmp    WORD PTR [eax+eax*1+0x2],0x3a
  402fd5:	0f 85 f5 fe ff ff    	jne    402ed0 <___mingw_dirname+0x150>
  402fdb:	8b 45 e0             	mov    eax,DWORD PTR [ebp-0x20]
  402fde:	83 c0 04             	add    eax,0x4
  402fe1:	89 45 dc             	mov    DWORD PTR [ebp-0x24],eax
  402fe4:	8b 45 e4             	mov    eax,DWORD PTR [ebp-0x1c]
  402fe7:	0f b7 44 00 04       	movzx  eax,WORD PTR [eax+eax*1+0x4]
  402fec:	66 89 45 da          	mov    WORD PTR [ebp-0x26],ax
  402ff0:	e9 db fe ff ff       	jmp    402ed0 <___mingw_dirname+0x150>
  402ff5:	39 45 dc             	cmp    DWORD PTR [ebp-0x24],eax
  402ff8:	0f 84 37 01 00 00    	je     403135 <___mingw_dirname+0x3b5>
  402ffe:	31 d2                	xor    edx,edx
  403000:	66 89 50 02          	mov    WORD PTR [eax+0x2],dx
  403004:	8b 45 e4             	mov    eax,DWORD PTR [ebp-0x1c]
  403007:	0f b7 14 00          	movzx  edx,WORD PTR [eax+eax*1]
  40300b:	8b 45 e0             	mov    eax,DWORD PTR [ebp-0x20]
  40300e:	66 83 fa 5c          	cmp    dx,0x5c
  403012:	0f 85 c7 00 00 00    	jne    4030df <___mingw_dirname+0x35f>
  403018:	83 c0 02             	add    eax,0x2
  40301b:	0f b7 08             	movzx  ecx,WORD PTR [eax]
  40301e:	66 83 f9 5c          	cmp    cx,0x5c
  403022:	74 f4                	je     403018 <___mingw_dirname+0x298>
  403024:	66 83 f9 2f          	cmp    cx,0x2f
  403028:	74 ee                	je     403018 <___mingw_dirname+0x298>
  40302a:	89 c1                	mov    ecx,eax
  40302c:	2b 4d e0             	sub    ecx,DWORD PTR [ebp-0x20]
  40302f:	83 f9 05             	cmp    ecx,0x5
  403032:	0f 8e b1 00 00 00    	jle    4030e9 <___mingw_dirname+0x369>
  403038:	8b 45 e0             	mov    eax,DWORD PTR [ebp-0x20]
  40303b:	89 c1                	mov    ecx,eax
  40303d:	66 85 d2             	test   dx,dx
  403040:	74 21                	je     403063 <___mingw_dirname+0x2e3>
  403042:	83 c1 02             	add    ecx,0x2
  403045:	66 83 fa 2f          	cmp    dx,0x2f
  403049:	66 89 51 fe          	mov    WORD PTR [ecx-0x2],dx
  40304d:	74 63                	je     4030b2 <___mingw_dirname+0x332>
  40304f:	66 83 38 5c          	cmp    WORD PTR [eax],0x5c
  403053:	8d 78 02             	lea    edi,[eax+0x2]
  403056:	74 58                	je     4030b0 <___mingw_dirname+0x330>
  403058:	0f b7 50 02          	movzx  edx,WORD PTR [eax+0x2]
  40305c:	89 f8                	mov    eax,edi
  40305e:	66 85 d2             	test   dx,dx
  403061:	75 df                	jne    403042 <___mingw_dirname+0x2c2>
  403063:	8b 45 d0             	mov    eax,DWORD PTR [ebp-0x30]
  403066:	31 ff                	xor    edi,edi
  403068:	66 89 39             	mov    WORD PTR [ecx],di
  40306b:	89 44 24 08          	mov    DWORD PTR [esp+0x8],eax
  40306f:	8b 45 e0             	mov    eax,DWORD PTR [ebp-0x20]
  403072:	89 34 24             	mov    DWORD PTR [esp],esi
  403075:	89 44 24 04          	mov    DWORD PTR [esp+0x4],eax
  403079:	e8 a2 50 00 00       	call   408120 <_wcstombs>
  40307e:	83 f8 ff             	cmp    eax,0xffffffff
  403081:	74 04                	je     403087 <___mingw_dirname+0x307>
  403083:	c6 04 06 00          	mov    BYTE PTR [esi+eax*1],0x0
  403087:	89 5c 24 04          	mov    DWORD PTR [esp+0x4],ebx
  40308b:	c7 04 24 02 00 00 00 	mov    DWORD PTR [esp],0x2
  403092:	e8 81 50 00 00       	call   408118 <_setlocale>
  403097:	89 1c 24             	mov    DWORD PTR [esp],ebx
  40309a:	e8 49 50 00 00       	call   4080e8 <_free>
  40309f:	8b 65 d4             	mov    esp,DWORD PTR [ebp-0x2c]
  4030a2:	8d 65 f4             	lea    esp,[ebp-0xc]
  4030a5:	5b                   	pop    ebx
  4030a6:	89 f0                	mov    eax,esi
  4030a8:	5e                   	pop    esi
  4030a9:	5f                   	pop    edi
  4030aa:	5d                   	pop    ebp
  4030ab:	c3                   	ret    
  4030ac:	8d 74 26 00          	lea    esi,[esi+eiz*1+0x0]
  4030b0:	89 f8                	mov    eax,edi
  4030b2:	0f b7 10             	movzx  edx,WORD PTR [eax]
  4030b5:	66 83 fa 2f          	cmp    dx,0x2f
  4030b9:	75 59                	jne    403114 <___mingw_dirname+0x394>
  4030bb:	90                   	nop
  4030bc:	8d 74 26 00          	lea    esi,[esi+eiz*1+0x0]
  4030c0:	83 c0 02             	add    eax,0x2
  4030c3:	0f b7 10             	movzx  edx,WORD PTR [eax]
  4030c6:	66 83 fa 5c          	cmp    dx,0x5c
  4030ca:	74 f4                	je     4030c0 <___mingw_dirname+0x340>
  4030cc:	66 83 fa 2f          	cmp    dx,0x2f
  4030d0:	74 ee                	je     4030c0 <___mingw_dirname+0x340>
  4030d2:	e9 66 ff ff ff       	jmp    40303d <___mingw_dirname+0x2bd>
  4030d7:	8b 65 d4             	mov    esp,DWORD PTR [ebp-0x2c]
  4030da:	e9 ee fc ff ff       	jmp    402dcd <___mingw_dirname+0x4d>
  4030df:	66 83 fa 2f          	cmp    dx,0x2f
  4030e3:	0f 84 2f ff ff ff    	je     403018 <___mingw_dirname+0x298>
  4030e9:	8b 7d e4             	mov    edi,DWORD PTR [ebp-0x1c]
  4030ec:	66 39 54 3f 02       	cmp    WORD PTR [edi+edi*1+0x2],dx
  4030f1:	0f 85 41 ff ff ff    	jne    403038 <___mingw_dirname+0x2b8>
  4030f7:	0f b7 10             	movzx  edx,WORD PTR [eax]
  4030fa:	e9 3c ff ff ff       	jmp    40303b <___mingw_dirname+0x2bb>
  4030ff:	8b 7d dc             	mov    edi,DWORD PTR [ebp-0x24]
  403102:	b9 2e 00 00 00       	mov    ecx,0x2e
  403107:	89 f8                	mov    eax,edi
  403109:	83 c0 02             	add    eax,0x2
  40310c:	66 89 0f             	mov    WORD PTR [edi],cx
  40310f:	e9 37 fe ff ff       	jmp    402f4b <___mingw_dirname+0x1cb>
  403114:	66 83 fa 5c          	cmp    dx,0x5c
  403118:	74 a6                	je     4030c0 <___mingw_dirname+0x340>
  40311a:	e9 1e ff ff ff       	jmp    40303d <___mingw_dirname+0x2bd>
  40311f:	66 83 7c 3f 04 00    	cmp    WORD PTR [edi+edi*1+0x4],0x0
  403125:	0f 85 a5 fd ff ff    	jne    402ed0 <___mingw_dirname+0x150>
  40312b:	90                   	nop
  40312c:	8d 74 26 00          	lea    esi,[esi+eiz*1+0x0]
  403130:	e9 52 ff ff ff       	jmp    403087 <___mingw_dirname+0x307>
  403135:	66 83 7d da 5c       	cmp    WORD PTR [ebp-0x26],0x5c
  40313a:	74 0e                	je     40314a <___mingw_dirname+0x3ca>
  40313c:	66 83 7d da 2f       	cmp    WORD PTR [ebp-0x26],0x2f
  403141:	8b 45 dc             	mov    eax,DWORD PTR [ebp-0x24]
  403144:	0f 85 b4 fe ff ff    	jne    402ffe <___mingw_dirname+0x27e>
  40314a:	8b 45 dc             	mov    eax,DWORD PTR [ebp-0x24]
  40314d:	0f b7 4d da          	movzx  ecx,WORD PTR [ebp-0x26]
  403151:	66 39 48 02          	cmp    WORD PTR [eax+0x2],cx
  403155:	0f 85 a3 fe ff ff    	jne    402ffe <___mingw_dirname+0x27e>
  40315b:	0f b7 50 04          	movzx  edx,WORD PTR [eax+0x4]
  40315f:	66 83 fa 2f          	cmp    dx,0x2f
  403163:	0f 84 95 fe ff ff    	je     402ffe <___mingw_dirname+0x27e>
  403169:	66 83 fa 5c          	cmp    dx,0x5c
  40316d:	89 f8                	mov    eax,edi
  40316f:	0f 85 89 fe ff ff    	jne    402ffe <___mingw_dirname+0x27e>
  403175:	8b 45 dc             	mov    eax,DWORD PTR [ebp-0x24]
  403178:	e9 81 fe ff ff       	jmp    402ffe <___mingw_dirname+0x27e>
  40317d:	90                   	nop
  40317e:	90                   	nop
  40317f:	90                   	nop

00403180 <_dirent_findnext>:
  403180:	55                   	push   ebp
  403181:	89 e5                	mov    ebp,esp
  403183:	56                   	push   esi
  403184:	89 d6                	mov    esi,edx
  403186:	53                   	push   ebx
  403187:	81 ec 50 01 00 00    	sub    esp,0x150
  40318d:	8d 95 b8 fe ff ff    	lea    edx,[ebp-0x148]
  403193:	89 54 24 04          	mov    DWORD PTR [esp+0x4],edx
  403197:	89 04 24             	mov    DWORD PTR [esp],eax
  40319a:	e8 31 50 00 00       	call   4081d0 <_FindNextFileA@8>
  40319f:	83 ec 08             	sub    esp,0x8
  4031a2:	85 c0                	test   eax,eax
  4031a4:	89 c3                	mov    ebx,eax
  4031a6:	75 20                	jne    4031c8 <_dirent_findnext+0x48>
  4031a8:	e8 03 50 00 00       	call   4081b0 <_GetLastError@0>
  4031ad:	31 db                	xor    ebx,ebx
  4031af:	83 f8 12             	cmp    eax,0x12
  4031b2:	74 0b                	je     4031bf <_dirent_findnext+0x3f>
  4031b4:	e8 57 4f 00 00       	call   408110 <__errno>
  4031b9:	c7 00 02 00 00 00    	mov    DWORD PTR [eax],0x2
  4031bf:	8d 65 f8             	lea    esp,[ebp-0x8]
  4031c2:	89 d8                	mov    eax,ebx
  4031c4:	5b                   	pop    ebx
  4031c5:	5e                   	pop    esi
  4031c6:	5d                   	pop    ebp
  4031c7:	c3                   	ret    
  4031c8:	8d 85 e4 fe ff ff    	lea    eax,[ebp-0x11c]
  4031ce:	89 44 24 0c          	mov    DWORD PTR [esp+0xc],eax
  4031d2:	8d 46 0c             	lea    eax,[esi+0xc]
  4031d5:	c7 44 24 08 4c a1 40 	mov    DWORD PTR [esp+0x8],0x40a14c
  4031dc:	00 
  4031dd:	c7 44 24 04 04 01 00 	mov    DWORD PTR [esp+0x4],0x104
  4031e4:	00 
  4031e5:	89 04 24             	mov    DWORD PTR [esp],eax
  4031e8:	e8 43 04 00 00       	call   403630 <___mingw_snprintf>
  4031ed:	66 89 46 06          	mov    WORD PTR [esi+0x6],ax
  4031f1:	8b 85 b8 fe ff ff    	mov    eax,DWORD PTR [ebp-0x148]
  4031f7:	24 58                	and    al,0x58
  4031f9:	83 f8 10             	cmp    eax,0x10
  4031fc:	76 12                	jbe    403210 <_dirent_findnext+0x90>
  4031fe:	c7 46 08 18 00 00 00 	mov    DWORD PTR [esi+0x8],0x18
  403205:	8d 65 f8             	lea    esp,[ebp-0x8]
  403208:	89 d8                	mov    eax,ebx
  40320a:	5b                   	pop    ebx
  40320b:	5e                   	pop    esi
  40320c:	5d                   	pop    ebp
  40320d:	c3                   	ret    
  40320e:	66 90                	xchg   ax,ax
  403210:	89 46 08             	mov    DWORD PTR [esi+0x8],eax
  403213:	8d 65 f8             	lea    esp,[ebp-0x8]
  403216:	89 d8                	mov    eax,ebx
  403218:	5b                   	pop    ebx
  403219:	5e                   	pop    esi
  40321a:	5d                   	pop    ebp
  40321b:	c3                   	ret    
  40321c:	8d 74 26 00          	lea    esi,[esi+eiz*1+0x0]

00403220 <_dirent_findfirst>:
  403220:	55                   	push   ebp
  403221:	89 e5                	mov    ebp,esp
  403223:	56                   	push   esi
  403224:	53                   	push   ebx
  403225:	89 d3                	mov    ebx,edx
  403227:	81 ec 50 01 00 00    	sub    esp,0x150
  40322d:	8d 95 b8 fe ff ff    	lea    edx,[ebp-0x148]
  403233:	89 54 24 04          	mov    DWORD PTR [esp+0x4],edx
  403237:	89 04 24             	mov    DWORD PTR [esp],eax
  40323a:	e8 99 4f 00 00       	call   4081d8 <_FindFirstFileA@8>
  40323f:	83 ec 08             	sub    esp,0x8
  403242:	83 f8 ff             	cmp    eax,0xffffffff
  403245:	89 c6                	mov    esi,eax
  403247:	74 4a                	je     403293 <_dirent_findfirst+0x73>
  403249:	8d 85 e4 fe ff ff    	lea    eax,[ebp-0x11c]
  40324f:	89 44 24 0c          	mov    DWORD PTR [esp+0xc],eax
  403253:	8d 43 0c             	lea    eax,[ebx+0xc]
  403256:	c7 44 24 08 4c a1 40 	mov    DWORD PTR [esp+0x8],0x40a14c
  40325d:	00 
  40325e:	c7 44 24 04 04 01 00 	mov    DWORD PTR [esp+0x4],0x104
  403265:	00 
  403266:	89 04 24             	mov    DWORD PTR [esp],eax
  403269:	e8 c2 03 00 00       	call   403630 <___mingw_snprintf>
  40326e:	8b 8d b8 fe ff ff    	mov    ecx,DWORD PTR [ebp-0x148]
  403274:	80 e1 58             	and    cl,0x58
  403277:	83 f9 10             	cmp    ecx,0x10
  40327a:	66 89 43 06          	mov    WORD PTR [ebx+0x6],ax
  40327e:	89 4b 08             	mov    DWORD PTR [ebx+0x8],ecx
  403281:	76 07                	jbe    40328a <_dirent_findfirst+0x6a>
  403283:	c7 43 08 18 00 00 00 	mov    DWORD PTR [ebx+0x8],0x18
  40328a:	8d 65 f8             	lea    esp,[ebp-0x8]
  40328d:	89 f0                	mov    eax,esi
  40328f:	5b                   	pop    ebx
  403290:	5e                   	pop    esi
  403291:	5d                   	pop    ebp
  403292:	c3                   	ret    
  403293:	e8 78 4e 00 00       	call   408110 <__errno>
  403298:	89 c3                	mov    ebx,eax
  40329a:	e8 11 4f 00 00       	call   4081b0 <_GetLastError@0>
  40329f:	83 f8 03             	cmp    eax,0x3
  4032a2:	89 03                	mov    DWORD PTR [ebx],eax
  4032a4:	74 2a                	je     4032d0 <_dirent_findfirst+0xb0>
  4032a6:	e8 65 4e 00 00       	call   408110 <__errno>
  4032ab:	81 38 0b 01 00 00    	cmp    DWORD PTR [eax],0x10b
  4032b1:	74 2d                	je     4032e0 <_dirent_findfirst+0xc0>
  4032b3:	e8 58 4e 00 00       	call   408110 <__errno>
  4032b8:	83 38 02             	cmp    DWORD PTR [eax],0x2
  4032bb:	74 cd                	je     40328a <_dirent_findfirst+0x6a>
  4032bd:	8d 76 00             	lea    esi,[esi+0x0]
  4032c0:	e8 4b 4e 00 00       	call   408110 <__errno>
  4032c5:	c7 00 16 00 00 00    	mov    DWORD PTR [eax],0x16
  4032cb:	eb bd                	jmp    40328a <_dirent_findfirst+0x6a>
  4032cd:	8d 76 00             	lea    esi,[esi+0x0]
  4032d0:	e8 3b 4e 00 00       	call   408110 <__errno>
  4032d5:	c7 00 02 00 00 00    	mov    DWORD PTR [eax],0x2
  4032db:	eb ad                	jmp    40328a <_dirent_findfirst+0x6a>
  4032dd:	8d 76 00             	lea    esi,[esi+0x0]
  4032e0:	e8 2b 4e 00 00       	call   408110 <__errno>
  4032e5:	c7 00 14 00 00 00    	mov    DWORD PTR [eax],0x14
  4032eb:	eb 9d                	jmp    40328a <_dirent_findfirst+0x6a>
  4032ed:	8d 76 00             	lea    esi,[esi+0x0]

004032f0 <___mingw_opendir>:
  4032f0:	55                   	push   ebp
  4032f1:	57                   	push   edi
  4032f2:	56                   	push   esi
  4032f3:	53                   	push   ebx
  4032f4:	81 ec 2c 01 00 00    	sub    esp,0x12c
  4032fa:	8b 84 24 40 01 00 00 	mov    eax,DWORD PTR [esp+0x140]
  403301:	85 c0                	test   eax,eax
  403303:	0f 84 67 01 00 00    	je     403470 <___mingw_opendir+0x180>
  403309:	80 38 00             	cmp    BYTE PTR [eax],0x0
  40330c:	0f 84 40 01 00 00    	je     403452 <___mingw_opendir+0x162>
  403312:	8d 7c 24 1c          	lea    edi,[esp+0x1c]
  403316:	c7 44 24 08 04 01 00 	mov    DWORD PTR [esp+0x8],0x104
  40331d:	00 
  40331e:	89 fb                	mov    ebx,edi
  403320:	89 44 24 04          	mov    DWORD PTR [esp+0x4],eax
  403324:	89 3c 24             	mov    DWORD PTR [esp],edi
  403327:	e8 04 4e 00 00       	call   408130 <__fullpath>
  40332c:	80 7c 24 1c 00       	cmp    BYTE PTR [esp+0x1c],0x0
  403331:	74 5d                	je     403390 <___mingw_opendir+0xa0>
  403333:	8b 13                	mov    edx,DWORD PTR [ebx]
  403335:	83 c3 04             	add    ebx,0x4
  403338:	8d 82 ff fe fe fe    	lea    eax,[edx-0x1010101]
  40333e:	f7 d2                	not    edx
  403340:	21 d0                	and    eax,edx
  403342:	25 80 80 80 80       	and    eax,0x80808080
  403347:	74 ea                	je     403333 <___mingw_opendir+0x43>
  403349:	a9 80 80 00 00       	test   eax,0x8080
  40334e:	0f 84 df 00 00 00    	je     403433 <___mingw_opendir+0x143>
  403354:	00 c0                	add    al,al
  403356:	83 db 03             	sbb    ebx,0x3
  403359:	29 fb                	sub    ebx,edi
  40335b:	0f b6 44 1c 1b       	movzx  eax,BYTE PTR [esp+ebx*1+0x1b]
  403360:	3c 5c                	cmp    al,0x5c
  403362:	74 50                	je     4033b4 <___mingw_opendir+0xc4>
  403364:	3c 2f                	cmp    al,0x2f
  403366:	74 4c                	je     4033b4 <___mingw_opendir+0xc4>
  403368:	b9 5c 00 00 00       	mov    ecx,0x5c
  40336d:	66 89 0c 1f          	mov    WORD PTR [edi+ebx*1],cx
  403371:	89 fb                	mov    ebx,edi
  403373:	8b 13                	mov    edx,DWORD PTR [ebx]
  403375:	83 c3 04             	add    ebx,0x4
  403378:	8d 82 ff fe fe fe    	lea    eax,[edx-0x1010101]
  40337e:	f7 d2                	not    edx
  403380:	21 d0                	and    eax,edx
  403382:	25 80 80 80 80       	and    eax,0x80808080
  403387:	74 ea                	je     403373 <___mingw_opendir+0x83>
  403389:	eb 1b                	jmp    4033a6 <___mingw_opendir+0xb6>
  40338b:	90                   	nop
  40338c:	8d 74 26 00          	lea    esi,[esi+eiz*1+0x0]
  403390:	8b 13                	mov    edx,DWORD PTR [ebx]
  403392:	83 c3 04             	add    ebx,0x4
  403395:	8d 82 ff fe fe fe    	lea    eax,[edx-0x1010101]
  40339b:	f7 d2                	not    edx
  40339d:	21 d0                	and    eax,edx
  40339f:	25 80 80 80 80       	and    eax,0x80808080
  4033a4:	74 ea                	je     403390 <___mingw_opendir+0xa0>
  4033a6:	a9 80 80 00 00       	test   eax,0x8080
  4033ab:	74 7b                	je     403428 <___mingw_opendir+0x138>
  4033ad:	00 c0                	add    al,al
  4033af:	83 db 03             	sbb    ebx,0x3
  4033b2:	29 fb                	sub    ebx,edi
  4033b4:	ba 2a 00 00 00       	mov    edx,0x2a
  4033b9:	8d 83 1d 01 00 00    	lea    eax,[ebx+0x11d]
  4033bf:	66 89 14 1f          	mov    WORD PTR [edi+ebx*1],dx
  4033c3:	89 04 24             	mov    DWORD PTR [esp],eax
  4033c6:	e8 25 4d 00 00       	call   4080f0 <_malloc>
  4033cb:	85 c0                	test   eax,eax
  4033cd:	89 c6                	mov    esi,eax
  4033cf:	0f 84 8c 00 00 00    	je     403461 <___mingw_opendir+0x171>
  4033d5:	8d a8 18 01 00 00    	lea    ebp,[eax+0x118]
  4033db:	83 c3 02             	add    ebx,0x2
  4033de:	89 5c 24 08          	mov    DWORD PTR [esp+0x8],ebx
  4033e2:	89 7c 24 04          	mov    DWORD PTR [esp+0x4],edi
  4033e6:	89 2c 24             	mov    DWORD PTR [esp],ebp
  4033e9:	e8 ea 4c 00 00       	call   4080d8 <_memcpy>
  4033ee:	89 f2                	mov    edx,esi
  4033f0:	89 e8                	mov    eax,ebp
  4033f2:	e8 29 fe ff ff       	call   403220 <_dirent_findfirst>
  4033f7:	83 f8 ff             	cmp    eax,0xffffffff
  4033fa:	89 86 10 01 00 00    	mov    DWORD PTR [esi+0x110],eax
  403400:	74 7d                	je     40347f <___mingw_opendir+0x18f>
  403402:	b8 10 01 00 00       	mov    eax,0x110
  403407:	66 89 46 04          	mov    WORD PTR [esi+0x4],ax
  40340b:	89 f0                	mov    eax,esi
  40340d:	c7 86 14 01 00 00 00 	mov    DWORD PTR [esi+0x114],0x0
  403414:	00 00 00 
  403417:	c7 06 00 00 00 00    	mov    DWORD PTR [esi],0x0
  40341d:	81 c4 2c 01 00 00    	add    esp,0x12c
  403423:	5b                   	pop    ebx
  403424:	5e                   	pop    esi
  403425:	5f                   	pop    edi
  403426:	5d                   	pop    ebp
  403427:	c3                   	ret    
  403428:	c1 e8 10             	shr    eax,0x10
  40342b:	83 c3 02             	add    ebx,0x2
  40342e:	e9 7a ff ff ff       	jmp    4033ad <___mingw_opendir+0xbd>
  403433:	c1 e8 10             	shr    eax,0x10
  403436:	83 c3 02             	add    ebx,0x2
  403439:	00 c0                	add    al,al
  40343b:	83 db 03             	sbb    ebx,0x3
  40343e:	29 fb                	sub    ebx,edi
  403440:	0f b6 44 1c 1b       	movzx  eax,BYTE PTR [esp+ebx*1+0x1b]
  403445:	3c 5c                	cmp    al,0x5c
  403447:	0f 84 67 ff ff ff    	je     4033b4 <___mingw_opendir+0xc4>
  40344d:	e9 12 ff ff ff       	jmp    403364 <___mingw_opendir+0x74>
  403452:	e8 b9 4c 00 00       	call   408110 <__errno>
  403457:	c7 00 02 00 00 00    	mov    DWORD PTR [eax],0x2
  40345d:	31 c0                	xor    eax,eax
  40345f:	eb bc                	jmp    40341d <___mingw_opendir+0x12d>
  403461:	e8 aa 4c 00 00       	call   408110 <__errno>
  403466:	c7 00 0c 00 00 00    	mov    DWORD PTR [eax],0xc
  40346c:	31 c0                	xor    eax,eax
  40346e:	eb ad                	jmp    40341d <___mingw_opendir+0x12d>
  403470:	e8 9b 4c 00 00       	call   408110 <__errno>
  403475:	c7 00 16 00 00 00    	mov    DWORD PTR [eax],0x16
  40347b:	31 c0                	xor    eax,eax
  40347d:	eb 9e                	jmp    40341d <___mingw_opendir+0x12d>
  40347f:	89 34 24             	mov    DWORD PTR [esp],esi
  403482:	e8 61 4c 00 00       	call   4080e8 <_free>
  403487:	31 c0                	xor    eax,eax
  403489:	eb 92                	jmp    40341d <___mingw_opendir+0x12d>
  40348b:	90                   	nop
  40348c:	8d 74 26 00          	lea    esi,[esi+eiz*1+0x0]

00403490 <___mingw_readdir>:
  403490:	53                   	push   ebx
  403491:	83 ec 08             	sub    esp,0x8
  403494:	8b 5c 24 10          	mov    ebx,DWORD PTR [esp+0x10]
  403498:	85 db                	test   ebx,ebx
  40349a:	74 2b                	je     4034c7 <___mingw_readdir+0x37>
  40349c:	8b 83 14 01 00 00    	mov    eax,DWORD PTR [ebx+0x114]
  4034a2:	8d 50 01             	lea    edx,[eax+0x1]
  4034a5:	85 c0                	test   eax,eax
  4034a7:	89 93 14 01 00 00    	mov    DWORD PTR [ebx+0x114],edx
  4034ad:	7e 11                	jle    4034c0 <___mingw_readdir+0x30>
  4034af:	8b 83 10 01 00 00    	mov    eax,DWORD PTR [ebx+0x110]
  4034b5:	89 da                	mov    edx,ebx
  4034b7:	e8 c4 fc ff ff       	call   403180 <_dirent_findnext>
  4034bc:	85 c0                	test   eax,eax
  4034be:	74 02                	je     4034c2 <___mingw_readdir+0x32>
  4034c0:	89 d8                	mov    eax,ebx
  4034c2:	83 c4 08             	add    esp,0x8
  4034c5:	5b                   	pop    ebx
  4034c6:	c3                   	ret    
  4034c7:	e8 44 4c 00 00       	call   408110 <__errno>
  4034cc:	c7 00 09 00 00 00    	mov    DWORD PTR [eax],0x9
  4034d2:	31 c0                	xor    eax,eax
  4034d4:	eb ec                	jmp    4034c2 <___mingw_readdir+0x32>
  4034d6:	8d 76 00             	lea    esi,[esi+0x0]
  4034d9:	8d bc 27 00 00 00 00 	lea    edi,[edi+eiz*1+0x0]

004034e0 <___mingw_closedir>:
  4034e0:	55                   	push   ebp
  4034e1:	89 e5                	mov    ebp,esp
  4034e3:	53                   	push   ebx
  4034e4:	83 ec 14             	sub    esp,0x14
  4034e7:	8b 5d 08             	mov    ebx,DWORD PTR [ebp+0x8]
  4034ea:	85 db                	test   ebx,ebx
  4034ec:	74 24                	je     403512 <___mingw_closedir+0x32>
  4034ee:	8b 83 10 01 00 00    	mov    eax,DWORD PTR [ebx+0x110]
  4034f4:	89 04 24             	mov    DWORD PTR [esp],eax
  4034f7:	e8 e4 4c 00 00       	call   4081e0 <_FindClose@4>
  4034fc:	83 ec 04             	sub    esp,0x4
  4034ff:	85 c0                	test   eax,eax
  403501:	74 0f                	je     403512 <___mingw_closedir+0x32>
  403503:	89 1c 24             	mov    DWORD PTR [esp],ebx
  403506:	e8 dd 4b 00 00       	call   4080e8 <_free>
  40350b:	31 c0                	xor    eax,eax
  40350d:	8b 5d fc             	mov    ebx,DWORD PTR [ebp-0x4]
  403510:	c9                   	leave  
  403511:	c3                   	ret    
  403512:	e8 f9 4b 00 00       	call   408110 <__errno>
  403517:	c7 00 09 00 00 00    	mov    DWORD PTR [eax],0x9
  40351d:	b8 ff ff ff ff       	mov    eax,0xffffffff
  403522:	eb e9                	jmp    40350d <___mingw_closedir+0x2d>
  403524:	8d b6 00 00 00 00    	lea    esi,[esi+0x0]
  40352a:	8d bf 00 00 00 00    	lea    edi,[edi+0x0]

00403530 <___mingw_rewinddir>:
  403530:	55                   	push   ebp
  403531:	89 e5                	mov    ebp,esp
  403533:	53                   	push   ebx
  403534:	83 ec 14             	sub    esp,0x14
  403537:	8b 5d 08             	mov    ebx,DWORD PTR [ebp+0x8]
  40353a:	85 db                	test   ebx,ebx
  40353c:	74 15                	je     403553 <___mingw_rewinddir+0x23>
  40353e:	8b 83 10 01 00 00    	mov    eax,DWORD PTR [ebx+0x110]
  403544:	89 04 24             	mov    DWORD PTR [esp],eax
  403547:	e8 94 4c 00 00       	call   4081e0 <_FindClose@4>
  40354c:	83 ec 04             	sub    esp,0x4
  40354f:	85 c0                	test   eax,eax
  403551:	75 10                	jne    403563 <___mingw_rewinddir+0x33>
  403553:	e8 b8 4b 00 00       	call   408110 <__errno>
  403558:	c7 00 09 00 00 00    	mov    DWORD PTR [eax],0x9
  40355e:	8b 5d fc             	mov    ebx,DWORD PTR [ebp-0x4]
  403561:	c9                   	leave  
  403562:	c3                   	ret    
  403563:	8d 83 18 01 00 00    	lea    eax,[ebx+0x118]
  403569:	89 da                	mov    edx,ebx
  40356b:	e8 b0 fc ff ff       	call   403220 <_dirent_findfirst>
  403570:	83 f8 ff             	cmp    eax,0xffffffff
  403573:	89 83 10 01 00 00    	mov    DWORD PTR [ebx+0x110],eax
  403579:	74 e3                	je     40355e <___mingw_rewinddir+0x2e>
  40357b:	c7 83 14 01 00 00 00 	mov    DWORD PTR [ebx+0x114],0x0
  403582:	00 00 00 
  403585:	8b 5d fc             	mov    ebx,DWORD PTR [ebp-0x4]
  403588:	c9                   	leave  
  403589:	c3                   	ret    
  40358a:	8d b6 00 00 00 00    	lea    esi,[esi+0x0]

00403590 <___mingw_telldir>:
  403590:	83 ec 0c             	sub    esp,0xc
  403593:	8b 44 24 10          	mov    eax,DWORD PTR [esp+0x10]
  403597:	85 c0                	test   eax,eax
  403599:	74 0a                	je     4035a5 <___mingw_telldir+0x15>
  40359b:	8b 80 14 01 00 00    	mov    eax,DWORD PTR [eax+0x114]
  4035a1:	83 c4 0c             	add    esp,0xc
  4035a4:	c3                   	ret    
  4035a5:	e8 66 4b 00 00       	call   408110 <__errno>
  4035aa:	c7 00 09 00 00 00    	mov    DWORD PTR [eax],0x9
  4035b0:	b8 ff ff ff ff       	mov    eax,0xffffffff
  4035b5:	eb ea                	jmp    4035a1 <___mingw_telldir+0x11>
  4035b7:	89 f6                	mov    esi,esi
  4035b9:	8d bc 27 00 00 00 00 	lea    edi,[edi+eiz*1+0x0]

004035c0 <___mingw_seekdir>:
  4035c0:	56                   	push   esi
  4035c1:	53                   	push   ebx
  4035c2:	83 ec 14             	sub    esp,0x14
  4035c5:	8b 74 24 24          	mov    esi,DWORD PTR [esp+0x24]
  4035c9:	8b 5c 24 20          	mov    ebx,DWORD PTR [esp+0x20]
  4035cd:	85 f6                	test   esi,esi
  4035cf:	78 41                	js     403612 <___mingw_seekdir+0x52>
  4035d1:	89 1c 24             	mov    DWORD PTR [esp],ebx
  4035d4:	e8 57 ff ff ff       	call   403530 <___mingw_rewinddir>
  4035d9:	85 f6                	test   esi,esi
  4035db:	74 2f                	je     40360c <___mingw_seekdir+0x4c>
  4035dd:	83 bb 10 01 00 00 ff 	cmp    DWORD PTR [ebx+0x110],0xffffffff
  4035e4:	75 13                	jne    4035f9 <___mingw_seekdir+0x39>
  4035e6:	eb 24                	jmp    40360c <___mingw_seekdir+0x4c>
  4035e8:	8b 83 10 01 00 00    	mov    eax,DWORD PTR [ebx+0x110]
  4035ee:	89 da                	mov    edx,ebx
  4035f0:	e8 8b fb ff ff       	call   403180 <_dirent_findnext>
  4035f5:	85 c0                	test   eax,eax
  4035f7:	74 13                	je     40360c <___mingw_seekdir+0x4c>
  4035f9:	8b 83 14 01 00 00    	mov    eax,DWORD PTR [ebx+0x114]
  4035ff:	83 c0 01             	add    eax,0x1
  403602:	39 c6                	cmp    esi,eax
  403604:	89 83 14 01 00 00    	mov    DWORD PTR [ebx+0x114],eax
  40360a:	7f dc                	jg     4035e8 <___mingw_seekdir+0x28>
  40360c:	83 c4 14             	add    esp,0x14
  40360f:	5b                   	pop    ebx
  403610:	5e                   	pop    esi
  403611:	c3                   	ret    
  403612:	e8 f9 4a 00 00       	call   408110 <__errno>
  403617:	c7 00 16 00 00 00    	mov    DWORD PTR [eax],0x16
  40361d:	83 c4 14             	add    esp,0x14
  403620:	5b                   	pop    ebx
  403621:	5e                   	pop    esi
  403622:	c3                   	ret    
  403623:	90                   	nop
  403624:	90                   	nop
  403625:	90                   	nop
  403626:	90                   	nop
  403627:	90                   	nop
  403628:	90                   	nop
  403629:	90                   	nop
  40362a:	90                   	nop
  40362b:	90                   	nop
  40362c:	90                   	nop
  40362d:	90                   	nop
  40362e:	90                   	nop
  40362f:	90                   	nop

00403630 <___mingw_snprintf>:
  403630:	83 ec 1c             	sub    esp,0x1c
  403633:	8d 44 24 2c          	lea    eax,[esp+0x2c]
  403637:	89 44 24 0c          	mov    DWORD PTR [esp+0xc],eax
  40363b:	8b 44 24 28          	mov    eax,DWORD PTR [esp+0x28]
  40363f:	89 44 24 08          	mov    DWORD PTR [esp+0x8],eax
  403643:	8b 44 24 24          	mov    eax,DWORD PTR [esp+0x24]
  403647:	89 44 24 04          	mov    DWORD PTR [esp+0x4],eax
  40364b:	8b 44 24 20          	mov    eax,DWORD PTR [esp+0x20]
  40364f:	89 04 24             	mov    DWORD PTR [esp],eax
  403652:	e8 09 00 00 00       	call   403660 <___mingw_vsnprintf>
  403657:	83 c4 1c             	add    esp,0x1c
  40365a:	c3                   	ret    
  40365b:	90                   	nop
  40365c:	90                   	nop
  40365d:	90                   	nop
  40365e:	90                   	nop
  40365f:	90                   	nop

00403660 <___mingw_vsnprintf>:
  403660:	56                   	push   esi
  403661:	53                   	push   ebx
  403662:	83 ec 24             	sub    esp,0x24
  403665:	8b 44 24 34          	mov    eax,DWORD PTR [esp+0x34]
  403669:	8b 5c 24 30          	mov    ebx,DWORD PTR [esp+0x30]
  40366d:	8b 54 24 38          	mov    edx,DWORD PTR [esp+0x38]
  403671:	8b 4c 24 3c          	mov    ecx,DWORD PTR [esp+0x3c]
  403675:	85 c0                	test   eax,eax
  403677:	74 37                	je     4036b0 <___mingw_vsnprintf+0x50>
  403679:	8d 70 ff             	lea    esi,[eax-0x1]
  40367c:	89 54 24 0c          	mov    DWORD PTR [esp+0xc],edx
  403680:	89 4c 24 10          	mov    DWORD PTR [esp+0x10],ecx
  403684:	89 74 24 08          	mov    DWORD PTR [esp+0x8],esi
  403688:	89 5c 24 04          	mov    DWORD PTR [esp+0x4],ebx
  40368c:	c7 04 24 00 00 00 00 	mov    DWORD PTR [esp],0x0
  403693:	e8 e8 15 00 00       	call   404c80 <___mingw_pformat>
  403698:	39 f0                	cmp    eax,esi
  40369a:	89 c2                	mov    edx,eax
  40369c:	77 0a                	ja     4036a8 <___mingw_vsnprintf+0x48>
  40369e:	c6 04 13 00          	mov    BYTE PTR [ebx+edx*1],0x0
  4036a2:	83 c4 24             	add    esp,0x24
  4036a5:	5b                   	pop    ebx
  4036a6:	5e                   	pop    esi
  4036a7:	c3                   	ret    
  4036a8:	89 f2                	mov    edx,esi
  4036aa:	eb f2                	jmp    40369e <___mingw_vsnprintf+0x3e>
  4036ac:	8d 74 26 00          	lea    esi,[esi+eiz*1+0x0]
  4036b0:	89 5c 24 04          	mov    DWORD PTR [esp+0x4],ebx
  4036b4:	89 4c 24 10          	mov    DWORD PTR [esp+0x10],ecx
  4036b8:	89 54 24 0c          	mov    DWORD PTR [esp+0xc],edx
  4036bc:	c7 44 24 08 00 00 00 	mov    DWORD PTR [esp+0x8],0x0
  4036c3:	00 
  4036c4:	c7 04 24 00 00 00 00 	mov    DWORD PTR [esp],0x0
  4036cb:	e8 b0 15 00 00       	call   404c80 <___mingw_pformat>
  4036d0:	83 c4 24             	add    esp,0x24
  4036d3:	5b                   	pop    ebx
  4036d4:	5e                   	pop    esi
  4036d5:	c3                   	ret    
  4036d6:	90                   	nop
  4036d7:	90                   	nop
  4036d8:	90                   	nop
  4036d9:	90                   	nop
  4036da:	90                   	nop
  4036db:	90                   	nop
  4036dc:	90                   	nop
  4036dd:	90                   	nop
  4036de:	90                   	nop
  4036df:	90                   	nop

004036e0 <___pformat_cvt>:
  4036e0:	53                   	push   ebx
  4036e1:	89 c1                	mov    ecx,eax
  4036e3:	83 ec 48             	sub    esp,0x48
  4036e6:	8b 44 24 50          	mov    eax,DWORD PTR [esp+0x50]
  4036ea:	89 44 24 20          	mov    DWORD PTR [esp+0x20],eax
  4036ee:	8b 44 24 54          	mov    eax,DWORD PTR [esp+0x54]
  4036f2:	89 44 24 24          	mov    DWORD PTR [esp+0x24],eax
  4036f6:	8b 44 24 58          	mov    eax,DWORD PTR [esp+0x58]
  4036fa:	89 44 24 28          	mov    DWORD PTR [esp+0x28],eax
  4036fe:	8b 44 24 5c          	mov    eax,DWORD PTR [esp+0x5c]
  403702:	db 6c 24 20          	fld    TBYTE PTR [esp+0x20]
  403706:	89 44 24 2c          	mov    DWORD PTR [esp+0x2c],eax
  40370a:	d9 e5                	fxam   
  40370c:	9b df e0             	fstsw  ax
  40370f:	dd d8                	fstp   st(0)
  403711:	f6 c4 01             	test   ah,0x1
  403714:	74 1a                	je     403730 <___pformat_cvt+0x50>
  403716:	f6 c4 04             	test   ah,0x4
  403719:	0f 84 91 00 00 00    	je     4037b0 <___pformat_cvt+0xd0>
  40371f:	c7 44 24 38 03 00 00 	mov    DWORD PTR [esp+0x38],0x3
  403726:	00 
  403727:	0f b7 54 24 28       	movzx  edx,WORD PTR [esp+0x28]
  40372c:	31 c0                	xor    eax,eax
  40372e:	eb 14                	jmp    403744 <___pformat_cvt+0x64>
  403730:	f6 c4 04             	test   ah,0x4
  403733:	75 5c                	jne    403791 <___pformat_cvt+0xb1>
  403735:	0f b7 54 24 28       	movzx  edx,WORD PTR [esp+0x28]
  40373a:	31 c0                	xor    eax,eax
  40373c:	c7 44 24 38 00 00 00 	mov    DWORD PTR [esp+0x38],0x0
  403743:	00 
  403744:	81 e2 00 80 00 00    	and    edx,0x8000
  40374a:	8b 5c 24 68          	mov    ebx,DWORD PTR [esp+0x68]
  40374e:	89 13                	mov    DWORD PTR [ebx],edx
  403750:	8d 54 24 3c          	lea    edx,[esp+0x3c]
  403754:	89 54 24 1c          	mov    DWORD PTR [esp+0x1c],edx
  403758:	8b 54 24 64          	mov    edx,DWORD PTR [esp+0x64]
  40375c:	89 4c 24 10          	mov    DWORD PTR [esp+0x10],ecx
  403760:	89 44 24 04          	mov    DWORD PTR [esp+0x4],eax
  403764:	c7 04 24 0c 90 40 00 	mov    DWORD PTR [esp],0x40900c
  40376b:	89 54 24 18          	mov    DWORD PTR [esp+0x18],edx
  40376f:	8b 54 24 60          	mov    edx,DWORD PTR [esp+0x60]
  403773:	89 54 24 14          	mov    DWORD PTR [esp+0x14],edx
  403777:	8d 54 24 38          	lea    edx,[esp+0x38]
  40377b:	89 54 24 0c          	mov    DWORD PTR [esp+0xc],edx
  40377f:	8d 54 24 20          	lea    edx,[esp+0x20]
  403783:	89 54 24 08          	mov    DWORD PTR [esp+0x8],edx
  403787:	e8 64 1e 00 00       	call   4055f0 <___gdtoa>
  40378c:	83 c4 48             	add    esp,0x48
  40378f:	5b                   	pop    ebx
  403790:	c3                   	ret    
  403791:	f6 c4 40             	test   ah,0x40
  403794:	74 2a                	je     4037c0 <___pformat_cvt+0xe0>
  403796:	c7 44 24 38 02 00 00 	mov    DWORD PTR [esp+0x38],0x2
  40379d:	00 
  40379e:	0f b7 54 24 28       	movzx  edx,WORD PTR [esp+0x28]
  4037a3:	b8 c3 bf ff ff       	mov    eax,0xffffbfc3
  4037a8:	eb 9a                	jmp    403744 <___pformat_cvt+0x64>
  4037aa:	8d b6 00 00 00 00    	lea    esi,[esi+0x0]
  4037b0:	c7 44 24 38 04 00 00 	mov    DWORD PTR [esp+0x38],0x4
  4037b7:	00 
  4037b8:	31 c0                	xor    eax,eax
  4037ba:	31 d2                	xor    edx,edx
  4037bc:	eb 8c                	jmp    40374a <___pformat_cvt+0x6a>
  4037be:	66 90                	xchg   ax,ax
  4037c0:	0f b7 54 24 28       	movzx  edx,WORD PTR [esp+0x28]
  4037c5:	c7 44 24 38 01 00 00 	mov    DWORD PTR [esp+0x38],0x1
  4037cc:	00 
  4037cd:	89 d0                	mov    eax,edx
  4037cf:	25 ff 7f 00 00       	and    eax,0x7fff
  4037d4:	2d 3e 40 00 00       	sub    eax,0x403e
  4037d9:	e9 66 ff ff ff       	jmp    403744 <___pformat_cvt+0x64>
  4037de:	66 90                	xchg   ax,ax

004037e0 <___pformat_putc>:
  4037e0:	53                   	push   ebx
  4037e1:	83 ec 18             	sub    esp,0x18
  4037e4:	8b 4a 04             	mov    ecx,DWORD PTR [edx+0x4]
  4037e7:	f6 c5 20             	test   ch,0x20
  4037ea:	75 08                	jne    4037f4 <___pformat_putc+0x14>
  4037ec:	8b 5a 18             	mov    ebx,DWORD PTR [edx+0x18]
  4037ef:	39 5a 1c             	cmp    DWORD PTR [edx+0x1c],ebx
  4037f2:	7e 10                	jle    403804 <___pformat_putc+0x24>
  4037f4:	80 e5 10             	and    ch,0x10
  4037f7:	75 17                	jne    403810 <___pformat_putc+0x30>
  4037f9:	8b 1a                	mov    ebx,DWORD PTR [edx]
  4037fb:	8b 4a 18             	mov    ecx,DWORD PTR [edx+0x18]
  4037fe:	88 04 0b             	mov    BYTE PTR [ebx+ecx*1],al
  403801:	8b 5a 18             	mov    ebx,DWORD PTR [edx+0x18]
  403804:	83 c3 01             	add    ebx,0x1
  403807:	89 5a 18             	mov    DWORD PTR [edx+0x18],ebx
  40380a:	83 c4 18             	add    esp,0x18
  40380d:	5b                   	pop    ebx
  40380e:	c3                   	ret    
  40380f:	90                   	nop
  403810:	8b 0a                	mov    ecx,DWORD PTR [edx]
  403812:	89 04 24             	mov    DWORD PTR [esp],eax
  403815:	89 54 24 0c          	mov    DWORD PTR [esp+0xc],edx
  403819:	89 4c 24 04          	mov    DWORD PTR [esp+0x4],ecx
  40381d:	e8 16 49 00 00       	call   408138 <_fputc>
  403822:	8b 54 24 0c          	mov    edx,DWORD PTR [esp+0xc]
  403826:	8b 5a 18             	mov    ebx,DWORD PTR [edx+0x18]
  403829:	83 c3 01             	add    ebx,0x1
  40382c:	89 5a 18             	mov    DWORD PTR [edx+0x18],ebx
  40382f:	83 c4 18             	add    esp,0x18
  403832:	5b                   	pop    ebx
  403833:	c3                   	ret    
  403834:	8d b6 00 00 00 00    	lea    esi,[esi+0x0]
  40383a:	8d bf 00 00 00 00    	lea    edi,[edi+0x0]

00403840 <___pformat_wputchars>:
  403840:	55                   	push   ebp
  403841:	57                   	push   edi
  403842:	56                   	push   esi
  403843:	89 d6                	mov    esi,edx
  403845:	53                   	push   ebx
  403846:	89 cb                	mov    ebx,ecx
  403848:	83 ec 4c             	sub    esp,0x4c
  40384b:	89 44 24 18          	mov    DWORD PTR [esp+0x18],eax
  40384f:	8d 6c 24 30          	lea    ebp,[esp+0x30]
  403853:	8d 44 24 2c          	lea    eax,[esp+0x2c]
  403857:	89 44 24 08          	mov    DWORD PTR [esp+0x8],eax
  40385b:	c7 44 24 04 00 00 00 	mov    DWORD PTR [esp+0x4],0x0
  403862:	00 
  403863:	89 2c 24             	mov    DWORD PTR [esp],ebp
  403866:	e8 b5 32 00 00       	call   406b20 <_wcrtomb>
  40386b:	8b 43 0c             	mov    eax,DWORD PTR [ebx+0xc]
  40386e:	85 c0                	test   eax,eax
  403870:	78 08                	js     40387a <___pformat_wputchars+0x3a>
  403872:	39 c6                	cmp    esi,eax
  403874:	0f 8f c7 00 00 00    	jg     403941 <___pformat_wputchars+0x101>
  40387a:	8b 43 08             	mov    eax,DWORD PTR [ebx+0x8]
  40387d:	39 c6                	cmp    esi,eax
  40387f:	0f 8d 8c 00 00 00    	jge    403911 <___pformat_wputchars+0xd1>
  403885:	29 f0                	sub    eax,esi
  403887:	85 c0                	test   eax,eax
  403889:	89 43 08             	mov    DWORD PTR [ebx+0x8],eax
  40388c:	7e 0a                	jle    403898 <___pformat_wputchars+0x58>
  40388e:	f6 43 05 04          	test   BYTE PTR [ebx+0x5],0x4
  403892:	0f 84 85 00 00 00    	je     40391d <___pformat_wputchars+0xdd>
  403898:	89 74 24 1c          	mov    DWORD PTR [esp+0x1c],esi
  40389c:	8d 74 26 00          	lea    esi,[esi+eiz*1+0x0]
  4038a0:	8b 44 24 1c          	mov    eax,DWORD PTR [esp+0x1c]
  4038a4:	85 c0                	test   eax,eax
  4038a6:	7e 54                	jle    4038fc <___pformat_wputchars+0xbc>
  4038a8:	83 44 24 18 02       	add    DWORD PTR [esp+0x18],0x2
  4038ad:	8d 44 24 2c          	lea    eax,[esp+0x2c]
  4038b1:	89 44 24 08          	mov    DWORD PTR [esp+0x8],eax
  4038b5:	8b 44 24 18          	mov    eax,DWORD PTR [esp+0x18]
  4038b9:	0f b7 40 fe          	movzx  eax,WORD PTR [eax-0x2]
  4038bd:	89 2c 24             	mov    DWORD PTR [esp],ebp
  4038c0:	89 44 24 04          	mov    DWORD PTR [esp+0x4],eax
  4038c4:	e8 57 32 00 00       	call   406b20 <_wcrtomb>
  4038c9:	85 c0                	test   eax,eax
  4038cb:	7e 2f                	jle    4038fc <___pformat_wputchars+0xbc>
  4038cd:	8d 74 05 00          	lea    esi,[ebp+eax*1+0x0]
  4038d1:	89 ef                	mov    edi,ebp
  4038d3:	83 c7 01             	add    edi,0x1
  4038d6:	0f be 47 ff          	movsx  eax,BYTE PTR [edi-0x1]
  4038da:	89 da                	mov    edx,ebx
  4038dc:	e8 ff fe ff ff       	call   4037e0 <___pformat_putc>
  4038e1:	39 f7                	cmp    edi,esi
  4038e3:	75 ee                	jne    4038d3 <___pformat_wputchars+0x93>
  4038e5:	83 6c 24 1c 01       	sub    DWORD PTR [esp+0x1c],0x1
  4038ea:	eb b4                	jmp    4038a0 <___pformat_wputchars+0x60>
  4038ec:	8d 74 26 00          	lea    esi,[esi+eiz*1+0x0]
  4038f0:	89 da                	mov    edx,ebx
  4038f2:	b8 20 00 00 00       	mov    eax,0x20
  4038f7:	e8 e4 fe ff ff       	call   4037e0 <___pformat_putc>
  4038fc:	8b 43 08             	mov    eax,DWORD PTR [ebx+0x8]
  4038ff:	8d 50 ff             	lea    edx,[eax-0x1]
  403902:	85 c0                	test   eax,eax
  403904:	89 53 08             	mov    DWORD PTR [ebx+0x8],edx
  403907:	7f e7                	jg     4038f0 <___pformat_wputchars+0xb0>
  403909:	83 c4 4c             	add    esp,0x4c
  40390c:	5b                   	pop    ebx
  40390d:	5e                   	pop    esi
  40390e:	5f                   	pop    edi
  40390f:	5d                   	pop    ebp
  403910:	c3                   	ret    
  403911:	c7 43 08 ff ff ff ff 	mov    DWORD PTR [ebx+0x8],0xffffffff
  403918:	e9 7b ff ff ff       	jmp    403898 <___pformat_wputchars+0x58>
  40391d:	83 e8 01             	sub    eax,0x1
  403920:	89 43 08             	mov    DWORD PTR [ebx+0x8],eax
  403923:	89 da                	mov    edx,ebx
  403925:	b8 20 00 00 00       	mov    eax,0x20
  40392a:	e8 b1 fe ff ff       	call   4037e0 <___pformat_putc>
  40392f:	8b 43 08             	mov    eax,DWORD PTR [ebx+0x8]
  403932:	8d 50 ff             	lea    edx,[eax-0x1]
  403935:	85 c0                	test   eax,eax
  403937:	89 53 08             	mov    DWORD PTR [ebx+0x8],edx
  40393a:	75 e7                	jne    403923 <___pformat_wputchars+0xe3>
  40393c:	e9 57 ff ff ff       	jmp    403898 <___pformat_wputchars+0x58>
  403941:	89 c6                	mov    esi,eax
  403943:	e9 32 ff ff ff       	jmp    40387a <___pformat_wputchars+0x3a>
  403948:	90                   	nop
  403949:	8d b4 26 00 00 00 00 	lea    esi,[esi+eiz*1+0x0]

00403950 <___pformat_putchars>:
  403950:	57                   	push   edi
  403951:	89 c7                	mov    edi,eax
  403953:	8b 41 0c             	mov    eax,DWORD PTR [ecx+0xc]
  403956:	56                   	push   esi
  403957:	89 d6                	mov    esi,edx
  403959:	53                   	push   ebx
  40395a:	89 cb                	mov    ebx,ecx
  40395c:	85 c0                	test   eax,eax
  40395e:	78 08                	js     403968 <___pformat_putchars+0x18>
  403960:	39 c2                	cmp    edx,eax
  403962:	0f 8f 88 00 00 00    	jg     4039f0 <___pformat_putchars+0xa0>
  403968:	8b 43 08             	mov    eax,DWORD PTR [ebx+0x8]
  40396b:	39 c6                	cmp    esi,eax
  40396d:	7d 71                	jge    4039e0 <___pformat_putchars+0x90>
  40396f:	29 f0                	sub    eax,esi
  403971:	85 c0                	test   eax,eax
  403973:	89 43 08             	mov    DWORD PTR [ebx+0x8],eax
  403976:	7e 25                	jle    40399d <___pformat_putchars+0x4d>
  403978:	f6 43 05 04          	test   BYTE PTR [ebx+0x5],0x4
  40397c:	75 1f                	jne    40399d <___pformat_putchars+0x4d>
  40397e:	83 e8 01             	sub    eax,0x1
  403981:	89 43 08             	mov    DWORD PTR [ebx+0x8],eax
  403984:	89 da                	mov    edx,ebx
  403986:	b8 20 00 00 00       	mov    eax,0x20
  40398b:	e8 50 fe ff ff       	call   4037e0 <___pformat_putc>
  403990:	8b 43 08             	mov    eax,DWORD PTR [ebx+0x8]
  403993:	8d 50 ff             	lea    edx,[eax-0x1]
  403996:	85 c0                	test   eax,eax
  403998:	89 53 08             	mov    DWORD PTR [ebx+0x8],edx
  40399b:	75 e7                	jne    403984 <___pformat_putchars+0x34>
  40399d:	85 f6                	test   esi,esi
  40399f:	74 2c                	je     4039cd <___pformat_putchars+0x7d>
  4039a1:	83 c7 01             	add    edi,0x1
  4039a4:	0f be 47 ff          	movsx  eax,BYTE PTR [edi-0x1]
  4039a8:	89 da                	mov    edx,ebx
  4039aa:	e8 31 fe ff ff       	call   4037e0 <___pformat_putc>
  4039af:	83 ee 01             	sub    esi,0x1
  4039b2:	75 ed                	jne    4039a1 <___pformat_putchars+0x51>
  4039b4:	8b 43 08             	mov    eax,DWORD PTR [ebx+0x8]
  4039b7:	8d 50 ff             	lea    edx,[eax-0x1]
  4039ba:	85 c0                	test   eax,eax
  4039bc:	89 53 08             	mov    DWORD PTR [ebx+0x8],edx
  4039bf:	7e 19                	jle    4039da <___pformat_putchars+0x8a>
  4039c1:	89 da                	mov    edx,ebx
  4039c3:	b8 20 00 00 00       	mov    eax,0x20
  4039c8:	e8 13 fe ff ff       	call   4037e0 <___pformat_putc>
  4039cd:	8b 43 08             	mov    eax,DWORD PTR [ebx+0x8]
  4039d0:	8d 50 ff             	lea    edx,[eax-0x1]
  4039d3:	85 c0                	test   eax,eax
  4039d5:	89 53 08             	mov    DWORD PTR [ebx+0x8],edx
  4039d8:	7f e7                	jg     4039c1 <___pformat_putchars+0x71>
  4039da:	5b                   	pop    ebx
  4039db:	5e                   	pop    esi
  4039dc:	5f                   	pop    edi
  4039dd:	c3                   	ret    
  4039de:	66 90                	xchg   ax,ax
  4039e0:	c7 43 08 ff ff ff ff 	mov    DWORD PTR [ebx+0x8],0xffffffff
  4039e7:	eb b4                	jmp    40399d <___pformat_putchars+0x4d>
  4039e9:	8d b4 26 00 00 00 00 	lea    esi,[esi+eiz*1+0x0]
  4039f0:	89 c6                	mov    esi,eax
  4039f2:	e9 71 ff ff ff       	jmp    403968 <___pformat_putchars+0x18>
  4039f7:	89 f6                	mov    esi,esi
  4039f9:	8d bc 27 00 00 00 00 	lea    edi,[edi+eiz*1+0x0]

00403a00 <___pformat_emit_inf_or_nan>:
  403a00:	55                   	push   ebp
  403a01:	57                   	push   edi
  403a02:	56                   	push   esi
  403a03:	53                   	push   ebx
  403a04:	83 ec 1c             	sub    esp,0x1c
  403a07:	85 c0                	test   eax,eax
  403a09:	c7 41 0c ff ff ff ff 	mov    DWORD PTR [ecx+0xc],0xffffffff
  403a10:	74 3e                	je     403a50 <___pformat_emit_inf_or_nan+0x50>
  403a12:	8b 69 04             	mov    ebp,DWORD PTR [ecx+0x4]
  403a15:	8d 7c 24 0d          	lea    edi,[esp+0xd]
  403a19:	c6 44 24 0c 2d       	mov    BYTE PTR [esp+0xc],0x2d
  403a1e:	8d 44 24 0c          	lea    eax,[esp+0xc]
  403a22:	83 e5 20             	and    ebp,0x20
  403a25:	31 f6                	xor    esi,esi
  403a27:	0f b6 1c 32          	movzx  ebx,BYTE PTR [edx+esi*1]
  403a2b:	83 e3 df             	and    ebx,0xffffffdf
  403a2e:	09 eb                	or     ebx,ebp
  403a30:	88 1c 37             	mov    BYTE PTR [edi+esi*1],bl
  403a33:	83 c6 01             	add    esi,0x1
  403a36:	83 fe 03             	cmp    esi,0x3
  403a39:	75 ec                	jne    403a27 <___pformat_emit_inf_or_nan+0x27>
  403a3b:	8d 57 03             	lea    edx,[edi+0x3]
  403a3e:	29 c2                	sub    edx,eax
  403a40:	e8 0b ff ff ff       	call   403950 <___pformat_putchars>
  403a45:	83 c4 1c             	add    esp,0x1c
  403a48:	5b                   	pop    ebx
  403a49:	5e                   	pop    esi
  403a4a:	5f                   	pop    edi
  403a4b:	5d                   	pop    ebp
  403a4c:	c3                   	ret    
  403a4d:	8d 76 00             	lea    esi,[esi+0x0]
  403a50:	8b 69 04             	mov    ebp,DWORD PTR [ecx+0x4]
  403a53:	f7 c5 00 01 00 00    	test   ebp,0x100
  403a59:	74 15                	je     403a70 <___pformat_emit_inf_or_nan+0x70>
  403a5b:	c6 44 24 0c 2b       	mov    BYTE PTR [esp+0xc],0x2b
  403a60:	8d 7c 24 0d          	lea    edi,[esp+0xd]
  403a64:	8d 44 24 0c          	lea    eax,[esp+0xc]
  403a68:	eb b8                	jmp    403a22 <___pformat_emit_inf_or_nan+0x22>
  403a6a:	8d b6 00 00 00 00    	lea    esi,[esi+0x0]
  403a70:	f7 c5 40 00 00 00    	test   ebp,0x40
  403a76:	74 0f                	je     403a87 <___pformat_emit_inf_or_nan+0x87>
  403a78:	c6 44 24 0c 20       	mov    BYTE PTR [esp+0xc],0x20
  403a7d:	8d 7c 24 0d          	lea    edi,[esp+0xd]
  403a81:	8d 44 24 0c          	lea    eax,[esp+0xc]
  403a85:	eb 9b                	jmp    403a22 <___pformat_emit_inf_or_nan+0x22>
  403a87:	8d 44 24 0c          	lea    eax,[esp+0xc]
  403a8b:	89 c7                	mov    edi,eax
  403a8d:	eb 93                	jmp    403a22 <___pformat_emit_inf_or_nan+0x22>
  403a8f:	90                   	nop

00403a90 <___pformat_int>:
  403a90:	55                   	push   ebp
  403a91:	89 e5                	mov    ebp,esp
  403a93:	57                   	push   edi
  403a94:	89 d7                	mov    edi,edx
  403a96:	56                   	push   esi
  403a97:	89 c6                	mov    esi,eax
  403a99:	53                   	push   ebx
  403a9a:	89 cb                	mov    ebx,ecx
  403a9c:	83 ec 2c             	sub    esp,0x2c
  403a9f:	89 55 dc             	mov    DWORD PTR [ebp-0x24],edx
  403aa2:	8b 51 0c             	mov    edx,DWORD PTR [ecx+0xc]
  403aa5:	89 45 d8             	mov    DWORD PTR [ebp-0x28],eax
  403aa8:	8b 49 08             	mov    ecx,DWORD PTR [ecx+0x8]
  403aab:	89 d0                	mov    eax,edx
  403aad:	c1 f8 1f             	sar    eax,0x1f
  403ab0:	f7 d0                	not    eax
  403ab2:	21 d0                	and    eax,edx
  403ab4:	83 c0 17             	add    eax,0x17
  403ab7:	39 c8                	cmp    eax,ecx
  403ab9:	7d 02                	jge    403abd <___pformat_int+0x2d>
  403abb:	89 c8                	mov    eax,ecx
  403abd:	83 c0 0f             	add    eax,0xf
  403ac0:	83 e0 f0             	and    eax,0xfffffff0
  403ac3:	e8 a8 e5 ff ff       	call   402070 <___chkstk_ms>
  403ac8:	29 c4                	sub    esp,eax
  403aca:	8d 44 24 10          	lea    eax,[esp+0x10]
  403ace:	89 45 e4             	mov    DWORD PTR [ebp-0x1c],eax
  403ad1:	8b 43 04             	mov    eax,DWORD PTR [ebx+0x4]
  403ad4:	a8 80                	test   al,0x80
  403ad6:	74 0d                	je     403ae5 <___pformat_int+0x55>
  403ad8:	85 ff                	test   edi,edi
  403ada:	0f 88 b0 01 00 00    	js     403c90 <___pformat_int+0x200>
  403ae0:	24 7f                	and    al,0x7f
  403ae2:	89 43 04             	mov    DWORD PTR [ebx+0x4],eax
  403ae5:	8b 4d dc             	mov    ecx,DWORD PTR [ebp-0x24]
  403ae8:	8b 7d d8             	mov    edi,DWORD PTR [ebp-0x28]
  403aeb:	8b 75 e4             	mov    esi,DWORD PTR [ebp-0x1c]
  403aee:	89 c8                	mov    eax,ecx
  403af0:	09 f8                	or     eax,edi
  403af2:	74 5d                	je     403b51 <___pformat_int+0xc1>
  403af4:	89 5d d8             	mov    DWORD PTR [ebp-0x28],ebx
  403af7:	89 cb                	mov    ebx,ecx
  403af9:	8d b4 26 00 00 00 00 	lea    esi,[esi+eiz*1+0x0]
  403b00:	89 3c 24             	mov    DWORD PTR [esp],edi
  403b03:	83 c6 01             	add    esi,0x1
  403b06:	89 5c 24 04          	mov    DWORD PTR [esp+0x4],ebx
  403b0a:	c7 44 24 08 0a 00 00 	mov    DWORD PTR [esp+0x8],0xa
  403b11:	00 
  403b12:	c7 44 24 0c 00 00 00 	mov    DWORD PTR [esp+0xc],0x0
  403b19:	00 
  403b1a:	e8 f1 46 00 00       	call   408210 <___umoddi3>
  403b1f:	83 c0 30             	add    eax,0x30
  403b22:	88 46 ff             	mov    BYTE PTR [esi-0x1],al
  403b25:	89 3c 24             	mov    DWORD PTR [esp],edi
  403b28:	89 5c 24 04          	mov    DWORD PTR [esp+0x4],ebx
  403b2c:	c7 44 24 08 0a 00 00 	mov    DWORD PTR [esp+0x8],0xa
  403b33:	00 
  403b34:	c7 44 24 0c 00 00 00 	mov    DWORD PTR [esp+0xc],0x0
  403b3b:	00 
  403b3c:	e8 1f 48 00 00       	call   408360 <___udivdi3>
  403b41:	89 c7                	mov    edi,eax
  403b43:	89 d0                	mov    eax,edx
  403b45:	09 f8                	or     eax,edi
  403b47:	89 d3                	mov    ebx,edx
  403b49:	75 b5                	jne    403b00 <___pformat_int+0x70>
  403b4b:	8b 5d d8             	mov    ebx,DWORD PTR [ebp-0x28]
  403b4e:	8b 53 0c             	mov    edx,DWORD PTR [ebx+0xc]
  403b51:	85 d2                	test   edx,edx
  403b53:	89 f7                	mov    edi,esi
  403b55:	7e 19                	jle    403b70 <___pformat_int+0xe0>
  403b57:	8b 45 e4             	mov    eax,DWORD PTR [ebp-0x1c]
  403b5a:	29 f0                	sub    eax,esi
  403b5c:	01 c2                	add    edx,eax
  403b5e:	85 d2                	test   edx,edx
  403b60:	7e 0e                	jle    403b70 <___pformat_int+0xe0>
  403b62:	8d 3c 16             	lea    edi,[esi+edx*1]
  403b65:	83 c6 01             	add    esi,0x1
  403b68:	39 fe                	cmp    esi,edi
  403b6a:	c6 46 ff 30          	mov    BYTE PTR [esi-0x1],0x30
  403b6e:	75 f5                	jne    403b65 <___pformat_int+0xd5>
  403b70:	3b 7d e4             	cmp    edi,DWORD PTR [ebp-0x1c]
  403b73:	0f 84 29 01 00 00    	je     403ca2 <___pformat_int+0x212>
  403b79:	8b 43 08             	mov    eax,DWORD PTR [ebx+0x8]
  403b7c:	85 c0                	test   eax,eax
  403b7e:	7e 59                	jle    403bd9 <___pformat_int+0x149>
  403b80:	8b 55 e4             	mov    edx,DWORD PTR [ebp-0x1c]
  403b83:	29 fa                	sub    edx,edi
  403b85:	01 c2                	add    edx,eax
  403b87:	8b 43 04             	mov    eax,DWORD PTR [ebx+0x4]
  403b8a:	85 d2                	test   edx,edx
  403b8c:	89 53 08             	mov    DWORD PTR [ebx+0x8],edx
  403b8f:	7e 4b                	jle    403bdc <___pformat_int+0x14c>
  403b91:	a9 c0 01 00 00       	test   eax,0x1c0
  403b96:	74 06                	je     403b9e <___pformat_int+0x10e>
  403b98:	83 ea 01             	sub    edx,0x1
  403b9b:	89 53 08             	mov    DWORD PTR [ebx+0x8],edx
  403b9e:	8b 53 0c             	mov    edx,DWORD PTR [ebx+0xc]
  403ba1:	85 d2                	test   edx,edx
  403ba3:	0f 88 a7 00 00 00    	js     403c50 <___pformat_int+0x1c0>
  403ba9:	f6 c4 04             	test   ah,0x4
  403bac:	75 2e                	jne    403bdc <___pformat_int+0x14c>
  403bae:	8b 53 08             	mov    edx,DWORD PTR [ebx+0x8]
  403bb1:	8d 4a ff             	lea    ecx,[edx-0x1]
  403bb4:	85 d2                	test   edx,edx
  403bb6:	89 4b 08             	mov    DWORD PTR [ebx+0x8],ecx
  403bb9:	7e 21                	jle    403bdc <___pformat_int+0x14c>
  403bbb:	90                   	nop
  403bbc:	8d 74 26 00          	lea    esi,[esi+eiz*1+0x0]
  403bc0:	89 da                	mov    edx,ebx
  403bc2:	b8 20 00 00 00       	mov    eax,0x20
  403bc7:	e8 14 fc ff ff       	call   4037e0 <___pformat_putc>
  403bcc:	8b 43 08             	mov    eax,DWORD PTR [ebx+0x8]
  403bcf:	8d 50 ff             	lea    edx,[eax-0x1]
  403bd2:	85 c0                	test   eax,eax
  403bd4:	89 53 08             	mov    DWORD PTR [ebx+0x8],edx
  403bd7:	7f e7                	jg     403bc0 <___pformat_int+0x130>
  403bd9:	8b 43 04             	mov    eax,DWORD PTR [ebx+0x4]
  403bdc:	a8 80                	test   al,0x80
  403bde:	74 51                	je     403c31 <___pformat_int+0x1a1>
  403be0:	8d 77 01             	lea    esi,[edi+0x1]
  403be3:	c6 07 2d             	mov    BYTE PTR [edi],0x2d
  403be6:	39 75 e4             	cmp    DWORD PTR [ebp-0x1c],esi
  403be9:	8b 7d e4             	mov    edi,DWORD PTR [ebp-0x1c]
  403bec:	73 2e                	jae    403c1c <___pformat_int+0x18c>
  403bee:	66 90                	xchg   ax,ax
  403bf0:	83 ee 01             	sub    esi,0x1
  403bf3:	0f be 06             	movsx  eax,BYTE PTR [esi]
  403bf6:	89 da                	mov    edx,ebx
  403bf8:	e8 e3 fb ff ff       	call   4037e0 <___pformat_putc>
  403bfd:	39 fe                	cmp    esi,edi
  403bff:	75 ef                	jne    403bf0 <___pformat_int+0x160>
  403c01:	8b 43 08             	mov    eax,DWORD PTR [ebx+0x8]
  403c04:	8d 50 ff             	lea    edx,[eax-0x1]
  403c07:	85 c0                	test   eax,eax
  403c09:	89 53 08             	mov    DWORD PTR [ebx+0x8],edx
  403c0c:	7e 1b                	jle    403c29 <___pformat_int+0x199>
  403c0e:	66 90                	xchg   ax,ax
  403c10:	89 da                	mov    edx,ebx
  403c12:	b8 20 00 00 00       	mov    eax,0x20
  403c17:	e8 c4 fb ff ff       	call   4037e0 <___pformat_putc>
  403c1c:	8b 43 08             	mov    eax,DWORD PTR [ebx+0x8]
  403c1f:	8d 50 ff             	lea    edx,[eax-0x1]
  403c22:	85 c0                	test   eax,eax
  403c24:	89 53 08             	mov    DWORD PTR [ebx+0x8],edx
  403c27:	7f e7                	jg     403c10 <___pformat_int+0x180>
  403c29:	8d 65 f4             	lea    esp,[ebp-0xc]
  403c2c:	5b                   	pop    ebx
  403c2d:	5e                   	pop    esi
  403c2e:	5f                   	pop    edi
  403c2f:	5d                   	pop    ebp
  403c30:	c3                   	ret    
  403c31:	f6 c4 01             	test   ah,0x1
  403c34:	74 0a                	je     403c40 <___pformat_int+0x1b0>
  403c36:	8d 77 01             	lea    esi,[edi+0x1]
  403c39:	c6 07 2b             	mov    BYTE PTR [edi],0x2b
  403c3c:	eb a8                	jmp    403be6 <___pformat_int+0x156>
  403c3e:	66 90                	xchg   ax,ax
  403c40:	a8 40                	test   al,0x40
  403c42:	89 fe                	mov    esi,edi
  403c44:	74 a0                	je     403be6 <___pformat_int+0x156>
  403c46:	83 c6 01             	add    esi,0x1
  403c49:	c6 07 20             	mov    BYTE PTR [edi],0x20
  403c4c:	eb 98                	jmp    403be6 <___pformat_int+0x156>
  403c4e:	66 90                	xchg   ax,ax
  403c50:	89 c2                	mov    edx,eax
  403c52:	81 e2 00 06 00 00    	and    edx,0x600
  403c58:	81 fa 00 02 00 00    	cmp    edx,0x200
  403c5e:	0f 85 45 ff ff ff    	jne    403ba9 <___pformat_int+0x119>
  403c64:	8b 53 08             	mov    edx,DWORD PTR [ebx+0x8]
  403c67:	8d 4a ff             	lea    ecx,[edx-0x1]
  403c6a:	85 d2                	test   edx,edx
  403c6c:	89 4b 08             	mov    DWORD PTR [ebx+0x8],ecx
  403c6f:	0f 8e 67 ff ff ff    	jle    403bdc <___pformat_int+0x14c>
  403c75:	83 c7 01             	add    edi,0x1
  403c78:	c6 47 ff 30          	mov    BYTE PTR [edi-0x1],0x30
  403c7c:	8b 43 08             	mov    eax,DWORD PTR [ebx+0x8]
  403c7f:	8d 50 ff             	lea    edx,[eax-0x1]
  403c82:	85 c0                	test   eax,eax
  403c84:	89 53 08             	mov    DWORD PTR [ebx+0x8],edx
  403c87:	7f ec                	jg     403c75 <___pformat_int+0x1e5>
  403c89:	e9 4b ff ff ff       	jmp    403bd9 <___pformat_int+0x149>
  403c8e:	66 90                	xchg   ax,ax
  403c90:	f7 de                	neg    esi
  403c92:	83 d7 00             	adc    edi,0x0
  403c95:	f7 df                	neg    edi
  403c97:	89 75 d8             	mov    DWORD PTR [ebp-0x28],esi
  403c9a:	89 7d dc             	mov    DWORD PTR [ebp-0x24],edi
  403c9d:	e9 43 fe ff ff       	jmp    403ae5 <___pformat_int+0x55>
  403ca2:	8b 4b 0c             	mov    ecx,DWORD PTR [ebx+0xc]
  403ca5:	85 c9                	test   ecx,ecx
  403ca7:	0f 84 cc fe ff ff    	je     403b79 <___pformat_int+0xe9>
  403cad:	c6 07 30             	mov    BYTE PTR [edi],0x30
  403cb0:	83 c7 01             	add    edi,0x1
  403cb3:	e9 c1 fe ff ff       	jmp    403b79 <___pformat_int+0xe9>
  403cb8:	90                   	nop
  403cb9:	8d b4 26 00 00 00 00 	lea    esi,[esi+eiz*1+0x0]

00403cc0 <___pformat_xint>:
  403cc0:	55                   	push   ebp
  403cc1:	89 e5                	mov    ebp,esp
  403cc3:	57                   	push   edi
  403cc4:	89 cf                	mov    edi,ecx
  403cc6:	56                   	push   esi
  403cc7:	89 d6                	mov    esi,edx
  403cc9:	53                   	push   ebx
  403cca:	83 ec 2c             	sub    esp,0x2c
  403ccd:	89 55 dc             	mov    DWORD PTR [ebp-0x24],edx
  403cd0:	31 d2                	xor    edx,edx
  403cd2:	83 f8 6f             	cmp    eax,0x6f
  403cd5:	0f 94 c2             	sete   dl
  403cd8:	83 ea 01             	sub    edx,0x1
  403cdb:	83 e2 fa             	and    edx,0xfffffffa
  403cde:	89 4d d4             	mov    DWORD PTR [ebp-0x2c],ecx
  403ce1:	31 c9                	xor    ecx,ecx
  403ce3:	83 f8 6f             	cmp    eax,0x6f
  403ce6:	0f 95 c1             	setne  cl
  403ce9:	89 45 d8             	mov    DWORD PTR [ebp-0x28],eax
  403cec:	89 c8                	mov    eax,ecx
  403cee:	89 45 e4             	mov    DWORD PTR [ebp-0x1c],eax
  403cf1:	8b 45 08             	mov    eax,DWORD PTR [ebp+0x8]
  403cf4:	8d 1c cd 07 00 00 00 	lea    ebx,[ecx*8+0x7]
  403cfb:	89 5d d0             	mov    DWORD PTR [ebp-0x30],ebx
  403cfe:	8b 4d 08             	mov    ecx,DWORD PTR [ebp+0x8]
  403d01:	83 45 e4 03          	add    DWORD PTR [ebp-0x1c],0x3
  403d05:	8b 58 0c             	mov    ebx,DWORD PTR [eax+0xc]
  403d08:	8b 49 08             	mov    ecx,DWORD PTR [ecx+0x8]
  403d0b:	89 d8                	mov    eax,ebx
  403d0d:	c1 f8 1f             	sar    eax,0x1f
  403d10:	f7 d0                	not    eax
  403d12:	21 d8                	and    eax,ebx
  403d14:	8d 44 02 18          	lea    eax,[edx+eax*1+0x18]
  403d18:	39 c8                	cmp    eax,ecx
  403d1a:	7d 02                	jge    403d1e <___pformat_xint+0x5e>
  403d1c:	89 c8                	mov    eax,ecx
  403d1e:	83 c0 0f             	add    eax,0xf
  403d21:	83 e0 f0             	and    eax,0xfffffff0
  403d24:	e8 47 e3 ff ff       	call   402070 <___chkstk_ms>
  403d29:	29 c4                	sub    esp,eax
  403d2b:	8b 45 d4             	mov    eax,DWORD PTR [ebp-0x2c]
  403d2e:	0b 45 dc             	or     eax,DWORD PTR [ebp-0x24]
  403d31:	89 65 e0             	mov    DWORD PTR [ebp-0x20],esp
  403d34:	0f 84 4a 02 00 00    	je     403f84 <___pformat_xint+0x2c4>
  403d3a:	0f b6 4d d8          	movzx  ecx,BYTE PTR [ebp-0x28]
  403d3e:	89 e0                	mov    eax,esp
  403d40:	0f b6 5d d0          	movzx  ebx,BYTE PTR [ebp-0x30]
  403d44:	83 e1 20             	and    ecx,0x20
  403d47:	88 4d dc             	mov    BYTE PTR [ebp-0x24],cl
  403d4a:	eb 1f                	jmp    403d6b <___pformat_xint+0xab>
  403d4c:	8d 74 26 00          	lea    esi,[esi+eiz*1+0x0]
  403d50:	88 48 ff             	mov    BYTE PTR [eax-0x1],cl
  403d53:	0f b6 4d e4          	movzx  ecx,BYTE PTR [ebp-0x1c]
  403d57:	0f ad fe             	shrd   esi,edi,cl
  403d5a:	d3 ef                	shr    edi,cl
  403d5c:	f6 c1 20             	test   cl,0x20
  403d5f:	74 04                	je     403d65 <___pformat_xint+0xa5>
  403d61:	89 fe                	mov    esi,edi
  403d63:	31 ff                	xor    edi,edi
  403d65:	89 f9                	mov    ecx,edi
  403d67:	09 f1                	or     ecx,esi
  403d69:	74 1a                	je     403d85 <___pformat_xint+0xc5>
  403d6b:	89 f2                	mov    edx,esi
  403d6d:	83 c0 01             	add    eax,0x1
  403d70:	21 da                	and    edx,ebx
  403d72:	8d 4a 30             	lea    ecx,[edx+0x30]
  403d75:	80 f9 39             	cmp    cl,0x39
  403d78:	7e d6                	jle    403d50 <___pformat_xint+0x90>
  403d7a:	83 c2 37             	add    edx,0x37
  403d7d:	0a 55 dc             	or     dl,BYTE PTR [ebp-0x24]
  403d80:	88 50 ff             	mov    BYTE PTR [eax-0x1],dl
  403d83:	eb ce                	jmp    403d53 <___pformat_xint+0x93>
  403d85:	39 45 e0             	cmp    DWORD PTR [ebp-0x20],eax
  403d88:	0f 84 f0 01 00 00    	je     403f7e <___pformat_xint+0x2be>
  403d8e:	8b 7d 08             	mov    edi,DWORD PTR [ebp+0x8]
  403d91:	8b 5f 0c             	mov    ebx,DWORD PTR [edi+0xc]
  403d94:	85 db                	test   ebx,ebx
  403d96:	0f 8e a5 01 00 00    	jle    403f41 <___pformat_xint+0x281>
  403d9c:	8b 4d e0             	mov    ecx,DWORD PTR [ebp-0x20]
  403d9f:	29 c1                	sub    ecx,eax
  403da1:	01 cb                	add    ebx,ecx
  403da3:	85 db                	test   ebx,ebx
  403da5:	0f 8e 96 01 00 00    	jle    403f41 <___pformat_xint+0x281>
  403dab:	8d 3c 18             	lea    edi,[eax+ebx*1]
  403dae:	66 90                	xchg   ax,ax
  403db0:	83 c0 01             	add    eax,0x1
  403db3:	39 f8                	cmp    eax,edi
  403db5:	c6 40 ff 30          	mov    BYTE PTR [eax-0x1],0x30
  403db9:	75 f5                	jne    403db0 <___pformat_xint+0xf0>
  403dbb:	3b 7d e0             	cmp    edi,DWORD PTR [ebp-0x20]
  403dbe:	0f 84 a1 01 00 00    	je     403f65 <___pformat_xint+0x2a5>
  403dc4:	8b 45 08             	mov    eax,DWORD PTR [ebp+0x8]
  403dc7:	8b 70 08             	mov    esi,DWORD PTR [eax+0x8]
  403dca:	89 f8                	mov    eax,edi
  403dcc:	2b 45 e0             	sub    eax,DWORD PTR [ebp-0x20]
  403dcf:	39 c6                	cmp    esi,eax
  403dd1:	0f 8e a9 00 00 00    	jle    403e80 <___pformat_xint+0x1c0>
  403dd7:	29 c6                	sub    esi,eax
  403dd9:	8b 45 08             	mov    eax,DWORD PTR [ebp+0x8]
  403ddc:	85 f6                	test   esi,esi
  403dde:	89 70 08             	mov    DWORD PTR [eax+0x8],esi
  403de1:	7e 21                	jle    403e04 <___pformat_xint+0x144>
  403de3:	83 7d d8 6f          	cmp    DWORD PTR [ebp-0x28],0x6f
  403de7:	74 0d                	je     403df6 <___pformat_xint+0x136>
  403de9:	8b 45 08             	mov    eax,DWORD PTR [ebp+0x8]
  403dec:	f6 40 05 08          	test   BYTE PTR [eax+0x5],0x8
  403df0:	0f 85 00 01 00 00    	jne    403ef6 <___pformat_xint+0x236>
  403df6:	8b 45 08             	mov    eax,DWORD PTR [ebp+0x8]
  403df9:	8b 58 0c             	mov    ebx,DWORD PTR [eax+0xc]
  403dfc:	85 db                	test   ebx,ebx
  403dfe:	0f 88 09 01 00 00    	js     403f0d <___pformat_xint+0x24d>
  403e04:	8d 46 ff             	lea    eax,[esi-0x1]
  403e07:	89 45 e4             	mov    DWORD PTR [ebp-0x1c],eax
  403e0a:	8b 45 e4             	mov    eax,DWORD PTR [ebp-0x1c]
  403e0d:	83 7d d8 6f          	cmp    DWORD PTR [ebp-0x28],0x6f
  403e11:	89 c3                	mov    ebx,eax
  403e13:	74 0d                	je     403e22 <___pformat_xint+0x162>
  403e15:	8b 45 08             	mov    eax,DWORD PTR [ebp+0x8]
  403e18:	f6 40 05 08          	test   BYTE PTR [eax+0x5],0x8
  403e1c:	0f 85 be 00 00 00    	jne    403ee0 <___pformat_xint+0x220>
  403e22:	85 f6                	test   esi,esi
  403e24:	7e 09                	jle    403e2f <___pformat_xint+0x16f>
  403e26:	8b 45 08             	mov    eax,DWORD PTR [ebp+0x8]
  403e29:	f6 40 05 04          	test   BYTE PTR [eax+0x5],0x4
  403e2d:	74 71                	je     403ea0 <___pformat_xint+0x1e0>
  403e2f:	3b 7d e0             	cmp    edi,DWORD PTR [ebp-0x20]
  403e32:	76 25                	jbe    403e59 <___pformat_xint+0x199>
  403e34:	89 75 e4             	mov    DWORD PTR [ebp-0x1c],esi
  403e37:	8b 75 e0             	mov    esi,DWORD PTR [ebp-0x20]
  403e3a:	89 5d e0             	mov    DWORD PTR [ebp-0x20],ebx
  403e3d:	89 fb                	mov    ebx,edi
  403e3f:	8b 7d 08             	mov    edi,DWORD PTR [ebp+0x8]
  403e42:	83 eb 01             	sub    ebx,0x1
  403e45:	0f be 03             	movsx  eax,BYTE PTR [ebx]
  403e48:	89 fa                	mov    edx,edi
  403e4a:	e8 91 f9 ff ff       	call   4037e0 <___pformat_putc>
  403e4f:	39 f3                	cmp    ebx,esi
  403e51:	75 ef                	jne    403e42 <___pformat_xint+0x182>
  403e53:	8b 75 e4             	mov    esi,DWORD PTR [ebp-0x1c]
  403e56:	8b 5d e0             	mov    ebx,DWORD PTR [ebp-0x20]
  403e59:	85 f6                	test   esi,esi
  403e5b:	7e 19                	jle    403e76 <___pformat_xint+0x1b6>
  403e5d:	8b 75 08             	mov    esi,DWORD PTR [ebp+0x8]
  403e60:	b8 20 00 00 00       	mov    eax,0x20
  403e65:	83 eb 01             	sub    ebx,0x1
  403e68:	89 f2                	mov    edx,esi
  403e6a:	e8 71 f9 ff ff       	call   4037e0 <___pformat_putc>
  403e6f:	8d 43 01             	lea    eax,[ebx+0x1]
  403e72:	85 c0                	test   eax,eax
  403e74:	7f ea                	jg     403e60 <___pformat_xint+0x1a0>
  403e76:	8d 65 f4             	lea    esp,[ebp-0xc]
  403e79:	5b                   	pop    ebx
  403e7a:	5e                   	pop    esi
  403e7b:	5f                   	pop    edi
  403e7c:	5d                   	pop    ebp
  403e7d:	c3                   	ret    
  403e7e:	66 90                	xchg   ax,ax
  403e80:	8b 45 08             	mov    eax,DWORD PTR [ebp+0x8]
  403e83:	be ff ff ff ff       	mov    esi,0xffffffff
  403e88:	c7 45 e4 fe ff ff ff 	mov    DWORD PTR [ebp-0x1c],0xfffffffe
  403e8f:	c7 40 08 ff ff ff ff 	mov    DWORD PTR [eax+0x8],0xffffffff
  403e96:	e9 6f ff ff ff       	jmp    403e0a <___pformat_xint+0x14a>
  403e9b:	90                   	nop
  403e9c:	8d 74 26 00          	lea    esi,[esi+eiz*1+0x0]
  403ea0:	8b 5d e4             	mov    ebx,DWORD PTR [ebp-0x1c]
  403ea3:	89 c6                	mov    esi,eax
  403ea5:	b8 20 00 00 00       	mov    eax,0x20
  403eaa:	83 eb 01             	sub    ebx,0x1
  403ead:	89 f2                	mov    edx,esi
  403eaf:	e8 2c f9 ff ff       	call   4037e0 <___pformat_putc>
  403eb4:	8d 43 01             	lea    eax,[ebx+0x1]
  403eb7:	85 c0                	test   eax,eax
  403eb9:	7f ea                	jg     403ea5 <___pformat_xint+0x1e5>
  403ebb:	8b 4d e4             	mov    ecx,DWORD PTR [ebp-0x1c]
  403ebe:	89 c8                	mov    eax,ecx
  403ec0:	c1 f8 1f             	sar    eax,0x1f
  403ec3:	f7 d0                	not    eax
  403ec5:	8d 71 ff             	lea    esi,[ecx-0x1]
  403ec8:	21 c8                	and    eax,ecx
  403eca:	29 c6                	sub    esi,eax
  403ecc:	8d 5e ff             	lea    ebx,[esi-0x1]
  403ecf:	e9 5b ff ff ff       	jmp    403e2f <___pformat_xint+0x16f>
  403ed4:	83 ee 03             	sub    esi,0x3
  403ed7:	89 75 e4             	mov    DWORD PTR [ebp-0x1c],esi
  403eda:	89 c6                	mov    esi,eax
  403edc:	8d 74 26 00          	lea    esi,[esi+eiz*1+0x0]
  403ee0:	0f b6 45 d8          	movzx  eax,BYTE PTR [ebp-0x28]
  403ee4:	83 c7 02             	add    edi,0x2
  403ee7:	c6 47 ff 30          	mov    BYTE PTR [edi-0x1],0x30
  403eeb:	8b 5d e4             	mov    ebx,DWORD PTR [ebp-0x1c]
  403eee:	88 47 fe             	mov    BYTE PTR [edi-0x2],al
  403ef1:	e9 2c ff ff ff       	jmp    403e22 <___pformat_xint+0x162>
  403ef6:	8d 46 fe             	lea    eax,[esi-0x2]
  403ef9:	85 c0                	test   eax,eax
  403efb:	7e d7                	jle    403ed4 <___pformat_xint+0x214>
  403efd:	89 c6                	mov    esi,eax
  403eff:	8b 45 08             	mov    eax,DWORD PTR [ebp+0x8]
  403f02:	8b 58 0c             	mov    ebx,DWORD PTR [eax+0xc]
  403f05:	85 db                	test   ebx,ebx
  403f07:	0f 89 f7 fe ff ff    	jns    403e04 <___pformat_xint+0x144>
  403f0d:	8b 45 08             	mov    eax,DWORD PTR [ebp+0x8]
  403f10:	8b 40 04             	mov    eax,DWORD PTR [eax+0x4]
  403f13:	25 00 06 00 00       	and    eax,0x600
  403f18:	3d 00 02 00 00       	cmp    eax,0x200
  403f1d:	0f 85 e1 fe ff ff    	jne    403e04 <___pformat_xint+0x144>
  403f23:	01 fe                	add    esi,edi
  403f25:	83 c7 01             	add    edi,0x1
  403f28:	39 f7                	cmp    edi,esi
  403f2a:	c6 47 ff 30          	mov    BYTE PTR [edi-0x1],0x30
  403f2e:	75 f5                	jne    403f25 <___pformat_xint+0x265>
  403f30:	c7 45 e4 fe ff ff ff 	mov    DWORD PTR [ebp-0x1c],0xfffffffe
  403f37:	be ff ff ff ff       	mov    esi,0xffffffff
  403f3c:	e9 c9 fe ff ff       	jmp    403e0a <___pformat_xint+0x14a>
  403f41:	83 7d d8 6f          	cmp    DWORD PTR [ebp-0x28],0x6f
  403f45:	89 c7                	mov    edi,eax
  403f47:	0f 85 6e fe ff ff    	jne    403dbb <___pformat_xint+0xfb>
  403f4d:	8b 75 08             	mov    esi,DWORD PTR [ebp+0x8]
  403f50:	f6 46 05 08          	test   BYTE PTR [esi+0x5],0x8
  403f54:	0f 84 61 fe ff ff    	je     403dbb <___pformat_xint+0xfb>
  403f5a:	83 c7 01             	add    edi,0x1
  403f5d:	c6 00 30             	mov    BYTE PTR [eax],0x30
  403f60:	e9 56 fe ff ff       	jmp    403dbb <___pformat_xint+0xfb>
  403f65:	8b 45 08             	mov    eax,DWORD PTR [ebp+0x8]
  403f68:	8b 70 0c             	mov    esi,DWORD PTR [eax+0xc]
  403f6b:	85 f6                	test   esi,esi
  403f6d:	0f 84 51 fe ff ff    	je     403dc4 <___pformat_xint+0x104>
  403f73:	c6 07 30             	mov    BYTE PTR [edi],0x30
  403f76:	83 c7 01             	add    edi,0x1
  403f79:	e9 46 fe ff ff       	jmp    403dc4 <___pformat_xint+0x104>
  403f7e:	8b 45 08             	mov    eax,DWORD PTR [ebp+0x8]
  403f81:	8b 58 0c             	mov    ebx,DWORD PTR [eax+0xc]
  403f84:	8b 45 08             	mov    eax,DWORD PTR [ebp+0x8]
  403f87:	81 60 04 ff f7 ff ff 	and    DWORD PTR [eax+0x4],0xfffff7ff
  403f8e:	8b 45 e0             	mov    eax,DWORD PTR [ebp-0x20]
  403f91:	e9 fe fd ff ff       	jmp    403d94 <___pformat_xint+0xd4>
  403f96:	8d 76 00             	lea    esi,[esi+0x0]
  403f99:	8d bc 27 00 00 00 00 	lea    edi,[edi+eiz*1+0x0]

00403fa0 <___pformat_emit_float>:
  403fa0:	55                   	push   ebp
  403fa1:	89 e5                	mov    ebp,esp
  403fa3:	57                   	push   edi
  403fa4:	56                   	push   esi
  403fa5:	89 d6                	mov    esi,edx
  403fa7:	53                   	push   ebx
  403fa8:	89 cb                	mov    ebx,ecx
  403faa:	83 ec 3c             	sub    esp,0x3c
  403fad:	8b 7d 08             	mov    edi,DWORD PTR [ebp+0x8]
  403fb0:	85 c9                	test   ecx,ecx
  403fb2:	89 45 d4             	mov    DWORD PTR [ebp-0x2c],eax
  403fb5:	8b 47 08             	mov    eax,DWORD PTR [edi+0x8]
  403fb8:	0f 8e 7a 02 00 00    	jle    404238 <___pformat_emit_float+0x298>
  403fbe:	39 c1                	cmp    ecx,eax
  403fc0:	0f 8d 3a 01 00 00    	jge    404100 <___pformat_emit_float+0x160>
  403fc6:	29 c8                	sub    eax,ecx
  403fc8:	89 47 08             	mov    DWORD PTR [edi+0x8],eax
  403fcb:	85 c0                	test   eax,eax
  403fcd:	0f 88 2d 01 00 00    	js     404100 <___pformat_emit_float+0x160>
  403fd3:	8b 57 0c             	mov    edx,DWORD PTR [edi+0xc]
  403fd6:	39 c2                	cmp    edx,eax
  403fd8:	0f 8d 22 01 00 00    	jge    404100 <___pformat_emit_float+0x160>
  403fde:	29 d0                	sub    eax,edx
  403fe0:	85 c0                	test   eax,eax
  403fe2:	89 47 08             	mov    DWORD PTR [edi+0x8],eax
  403fe5:	0f 8e 1c 01 00 00    	jle    404107 <___pformat_emit_float+0x167>
  403feb:	85 d2                	test   edx,edx
  403fed:	0f 8e ad 02 00 00    	jle    4042a0 <___pformat_emit_float+0x300>
  403ff3:	83 e8 01             	sub    eax,0x1
  403ff6:	85 c0                	test   eax,eax
  403ff8:	89 47 08             	mov    DWORD PTR [edi+0x8],eax
  403ffb:	0f 84 06 01 00 00    	je     404107 <___pformat_emit_float+0x167>
  404001:	8b 55 d4             	mov    edx,DWORD PTR [ebp-0x2c]
  404004:	85 d2                	test   edx,edx
  404006:	0f 85 ba 01 00 00    	jne    4041c6 <___pformat_emit_float+0x226>
  40400c:	8b 57 04             	mov    edx,DWORD PTR [edi+0x4]
  40400f:	f7 c2 c0 01 00 00    	test   edx,0x1c0
  404015:	0f 85 ab 01 00 00    	jne    4041c6 <___pformat_emit_float+0x226>
  40401b:	80 e6 06             	and    dh,0x6
  40401e:	0f 85 e3 00 00 00    	jne    404107 <___pformat_emit_float+0x167>
  404024:	eb 0c                	jmp    404032 <___pformat_emit_float+0x92>
  404026:	89 fa                	mov    edx,edi
  404028:	b8 20 00 00 00       	mov    eax,0x20
  40402d:	e8 ae f7 ff ff       	call   4037e0 <___pformat_putc>
  404032:	8b 47 08             	mov    eax,DWORD PTR [edi+0x8]
  404035:	8d 50 ff             	lea    edx,[eax-0x1]
  404038:	85 c0                	test   eax,eax
  40403a:	89 57 08             	mov    DWORD PTR [edi+0x8],edx
  40403d:	7f e7                	jg     404026 <___pformat_emit_float+0x86>
  40403f:	8b 45 d4             	mov    eax,DWORD PTR [ebp-0x2c]
  404042:	85 c0                	test   eax,eax
  404044:	0f 84 c8 00 00 00    	je     404112 <___pformat_emit_float+0x172>
  40404a:	89 fa                	mov    edx,edi
  40404c:	b8 2d 00 00 00       	mov    eax,0x2d
  404051:	e8 8a f7 ff ff       	call   4037e0 <___pformat_putc>
  404056:	8b 57 08             	mov    edx,DWORD PTR [edi+0x8]
  404059:	85 d2                	test   edx,edx
  40405b:	7e 13                	jle    404070 <___pformat_emit_float+0xd0>
  40405d:	8b 47 04             	mov    eax,DWORD PTR [edi+0x4]
  404060:	25 00 06 00 00       	and    eax,0x600
  404065:	3d 00 02 00 00       	cmp    eax,0x200
  40406a:	0f 84 f1 01 00 00    	je     404261 <___pformat_emit_float+0x2c1>
  404070:	85 db                	test   ebx,ebx
  404072:	0f 8e 10 02 00 00    	jle    404288 <___pformat_emit_float+0x2e8>
  404078:	0f b6 16             	movzx  edx,BYTE PTR [esi]
  40407b:	b8 30 00 00 00       	mov    eax,0x30
  404080:	84 d2                	test   dl,dl
  404082:	74 06                	je     40408a <___pformat_emit_float+0xea>
  404084:	83 c6 01             	add    esi,0x1
  404087:	0f be c2             	movsx  eax,dl
  40408a:	89 fa                	mov    edx,edi
  40408c:	e8 4f f7 ff ff       	call   4037e0 <___pformat_putc>
  404091:	83 eb 01             	sub    ebx,0x1
  404094:	75 e2                	jne    404078 <___pformat_emit_float+0xd8>
  404096:	8b 47 0c             	mov    eax,DWORD PTR [edi+0xc]
  404099:	85 c0                	test   eax,eax
  40409b:	0f 8e 3f 01 00 00    	jle    4041e0 <___pformat_emit_float+0x240>
  4040a1:	83 7f 10 fd          	cmp    DWORD PTR [edi+0x10],0xfffffffd
  4040a5:	0f 84 49 01 00 00    	je     4041f4 <___pformat_emit_float+0x254>
  4040ab:	0f b7 57 14          	movzx  edx,WORD PTR [edi+0x14]
  4040af:	66 85 d2             	test   dx,dx
  4040b2:	0f 85 7f 00 00 00    	jne    404137 <___pformat_emit_float+0x197>
  4040b8:	b8 2e 00 00 00       	mov    eax,0x2e
  4040bd:	89 fa                	mov    edx,edi
  4040bf:	e8 1c f7 ff ff       	call   4037e0 <___pformat_putc>
  4040c4:	8b 47 0c             	mov    eax,DWORD PTR [edi+0xc]
  4040c7:	85 db                	test   ebx,ebx
  4040c9:	74 21                	je     4040ec <___pformat_emit_float+0x14c>
  4040cb:	e9 d8 00 00 00       	jmp    4041a8 <___pformat_emit_float+0x208>
  4040d0:	0f b6 16             	movzx  edx,BYTE PTR [esi]
  4040d3:	b8 30 00 00 00       	mov    eax,0x30
  4040d8:	84 d2                	test   dl,dl
  4040da:	74 06                	je     4040e2 <___pformat_emit_float+0x142>
  4040dc:	83 c6 01             	add    esi,0x1
  4040df:	0f be c2             	movsx  eax,dl
  4040e2:	89 fa                	mov    edx,edi
  4040e4:	e8 f7 f6 ff ff       	call   4037e0 <___pformat_putc>
  4040e9:	8b 47 0c             	mov    eax,DWORD PTR [edi+0xc]
  4040ec:	8d 50 ff             	lea    edx,[eax-0x1]
  4040ef:	85 c0                	test   eax,eax
  4040f1:	89 57 0c             	mov    DWORD PTR [edi+0xc],edx
  4040f4:	7f da                	jg     4040d0 <___pformat_emit_float+0x130>
  4040f6:	8d 65 f4             	lea    esp,[ebp-0xc]
  4040f9:	5b                   	pop    ebx
  4040fa:	5e                   	pop    esi
  4040fb:	5f                   	pop    edi
  4040fc:	5d                   	pop    ebp
  4040fd:	c3                   	ret    
  4040fe:	66 90                	xchg   ax,ax
  404100:	c7 47 08 ff ff ff ff 	mov    DWORD PTR [edi+0x8],0xffffffff
  404107:	8b 45 d4             	mov    eax,DWORD PTR [ebp-0x2c]
  40410a:	85 c0                	test   eax,eax
  40410c:	0f 85 38 ff ff ff    	jne    40404a <___pformat_emit_float+0xaa>
  404112:	8b 47 04             	mov    eax,DWORD PTR [edi+0x4]
  404115:	f6 c4 01             	test   ah,0x1
  404118:	0f 85 32 01 00 00    	jne    404250 <___pformat_emit_float+0x2b0>
  40411e:	a8 40                	test   al,0x40
  404120:	0f 84 30 ff ff ff    	je     404056 <___pformat_emit_float+0xb6>
  404126:	89 fa                	mov    edx,edi
  404128:	b8 20 00 00 00       	mov    eax,0x20
  40412d:	e8 ae f6 ff ff       	call   4037e0 <___pformat_putc>
  404132:	e9 1f ff ff ff       	jmp    404056 <___pformat_emit_float+0xb6>
  404137:	8b 47 10             	mov    eax,DWORD PTR [edi+0x10]
  40413a:	89 65 d4             	mov    DWORD PTR [ebp-0x2c],esp
  40413d:	83 c0 0f             	add    eax,0xf
  404140:	83 e0 f0             	and    eax,0xfffffff0
  404143:	e8 28 df ff ff       	call   402070 <___chkstk_ms>
  404148:	29 c4                	sub    esp,eax
  40414a:	8d 4c 24 10          	lea    ecx,[esp+0x10]
  40414e:	8d 45 e4             	lea    eax,[ebp-0x1c]
  404151:	c7 45 e4 00 00 00 00 	mov    DWORD PTR [ebp-0x1c],0x0
  404158:	89 44 24 08          	mov    DWORD PTR [esp+0x8],eax
  40415c:	89 54 24 04          	mov    DWORD PTR [esp+0x4],edx
  404160:	89 0c 24             	mov    DWORD PTR [esp],ecx
  404163:	89 4d d0             	mov    DWORD PTR [ebp-0x30],ecx
  404166:	e8 b5 29 00 00       	call   406b20 <_wcrtomb>
  40416b:	85 c0                	test   eax,eax
  40416d:	0f 8e 42 01 00 00    	jle    4042b5 <___pformat_emit_float+0x315>
  404173:	8b 4d d0             	mov    ecx,DWORD PTR [ebp-0x30]
  404176:	89 5d cc             	mov    DWORD PTR [ebp-0x34],ebx
  404179:	89 75 d0             	mov    DWORD PTR [ebp-0x30],esi
  40417c:	01 c8                	add    eax,ecx
  40417e:	89 cb                	mov    ebx,ecx
  404180:	89 c6                	mov    esi,eax
  404182:	83 c3 01             	add    ebx,0x1
  404185:	0f be 43 ff          	movsx  eax,BYTE PTR [ebx-0x1]
  404189:	89 fa                	mov    edx,edi
  40418b:	e8 50 f6 ff ff       	call   4037e0 <___pformat_putc>
  404190:	39 f3                	cmp    ebx,esi
  404192:	75 ee                	jne    404182 <___pformat_emit_float+0x1e2>
  404194:	8b 75 d0             	mov    esi,DWORD PTR [ebp-0x30]
  404197:	8b 5d cc             	mov    ebx,DWORD PTR [ebp-0x34]
  40419a:	85 db                	test   ebx,ebx
  40419c:	8b 65 d4             	mov    esp,DWORD PTR [ebp-0x2c]
  40419f:	8b 47 0c             	mov    eax,DWORD PTR [edi+0xc]
  4041a2:	0f 84 44 ff ff ff    	je     4040ec <___pformat_emit_float+0x14c>
  4041a8:	01 d8                	add    eax,ebx
  4041aa:	89 47 0c             	mov    DWORD PTR [edi+0xc],eax
  4041ad:	8d 76 00             	lea    esi,[esi+0x0]
  4041b0:	89 fa                	mov    edx,edi
  4041b2:	b8 30 00 00 00       	mov    eax,0x30
  4041b7:	e8 24 f6 ff ff       	call   4037e0 <___pformat_putc>
  4041bc:	83 c3 01             	add    ebx,0x1
  4041bf:	78 ef                	js     4041b0 <___pformat_emit_float+0x210>
  4041c1:	e9 23 ff ff ff       	jmp    4040e9 <___pformat_emit_float+0x149>
  4041c6:	83 e8 01             	sub    eax,0x1
  4041c9:	85 c0                	test   eax,eax
  4041cb:	89 47 08             	mov    DWORD PTR [edi+0x8],eax
  4041ce:	0f 84 33 ff ff ff    	je     404107 <___pformat_emit_float+0x167>
  4041d4:	8b 57 04             	mov    edx,DWORD PTR [edi+0x4]
  4041d7:	e9 3f fe ff ff       	jmp    40401b <___pformat_emit_float+0x7b>
  4041dc:	8d 74 26 00          	lea    esi,[esi+eiz*1+0x0]
  4041e0:	f6 47 05 08          	test   BYTE PTR [edi+0x5],0x8
  4041e4:	0f 84 dd fe ff ff    	je     4040c7 <___pformat_emit_float+0x127>
  4041ea:	83 7f 10 fd          	cmp    DWORD PTR [edi+0x10],0xfffffffd
  4041ee:	0f 85 b7 fe ff ff    	jne    4040ab <___pformat_emit_float+0x10b>
  4041f4:	c7 45 e4 00 00 00 00 	mov    DWORD PTR [ebp-0x1c],0x0
  4041fb:	e8 40 3f 00 00       	call   408140 <_localeconv>
  404200:	8d 55 e4             	lea    edx,[ebp-0x1c]
  404203:	89 54 24 0c          	mov    DWORD PTR [esp+0xc],edx
  404207:	c7 44 24 08 10 00 00 	mov    DWORD PTR [esp+0x8],0x10
  40420e:	00 
  40420f:	8b 00                	mov    eax,DWORD PTR [eax]
  404211:	89 44 24 04          	mov    DWORD PTR [esp+0x4],eax
  404215:	8d 45 e2             	lea    eax,[ebp-0x1e]
  404218:	89 04 24             	mov    DWORD PTR [esp],eax
  40421b:	e8 50 2c 00 00       	call   406e70 <_mbrtowc>
  404220:	85 c0                	test   eax,eax
  404222:	0f 8e 9e 00 00 00    	jle    4042c6 <___pformat_emit_float+0x326>
  404228:	0f b7 55 e2          	movzx  edx,WORD PTR [ebp-0x1e]
  40422c:	66 89 57 14          	mov    WORD PTR [edi+0x14],dx
  404230:	89 47 10             	mov    DWORD PTR [edi+0x10],eax
  404233:	e9 77 fe ff ff       	jmp    4040af <___pformat_emit_float+0x10f>
  404238:	85 c0                	test   eax,eax
  40423a:	0f 8e 8b fd ff ff    	jle    403fcb <___pformat_emit_float+0x2b>
  404240:	83 e8 01             	sub    eax,0x1
  404243:	89 47 08             	mov    DWORD PTR [edi+0x8],eax
  404246:	e9 88 fd ff ff       	jmp    403fd3 <___pformat_emit_float+0x33>
  40424b:	90                   	nop
  40424c:	8d 74 26 00          	lea    esi,[esi+eiz*1+0x0]
  404250:	89 fa                	mov    edx,edi
  404252:	b8 2b 00 00 00       	mov    eax,0x2b
  404257:	e8 84 f5 ff ff       	call   4037e0 <___pformat_putc>
  40425c:	e9 f5 fd ff ff       	jmp    404056 <___pformat_emit_float+0xb6>
  404261:	83 ea 01             	sub    edx,0x1
  404264:	89 57 08             	mov    DWORD PTR [edi+0x8],edx
  404267:	89 fa                	mov    edx,edi
  404269:	b8 30 00 00 00       	mov    eax,0x30
  40426e:	e8 6d f5 ff ff       	call   4037e0 <___pformat_putc>
  404273:	8b 47 08             	mov    eax,DWORD PTR [edi+0x8]
  404276:	8d 50 ff             	lea    edx,[eax-0x1]
  404279:	85 c0                	test   eax,eax
  40427b:	89 57 08             	mov    DWORD PTR [edi+0x8],edx
  40427e:	7f e7                	jg     404267 <___pformat_emit_float+0x2c7>
  404280:	85 db                	test   ebx,ebx
  404282:	0f 8f f0 fd ff ff    	jg     404078 <___pformat_emit_float+0xd8>
  404288:	89 fa                	mov    edx,edi
  40428a:	b8 30 00 00 00       	mov    eax,0x30
  40428f:	e8 4c f5 ff ff       	call   4037e0 <___pformat_putc>
  404294:	e9 fd fd ff ff       	jmp    404096 <___pformat_emit_float+0xf6>
  404299:	8d b4 26 00 00 00 00 	lea    esi,[esi+eiz*1+0x0]
  4042a0:	f6 47 05 08          	test   BYTE PTR [edi+0x5],0x8
  4042a4:	0f 84 57 fd ff ff    	je     404001 <___pformat_emit_float+0x61>
  4042aa:	8d b6 00 00 00 00    	lea    esi,[esi+0x0]
  4042b0:	e9 3e fd ff ff       	jmp    403ff3 <___pformat_emit_float+0x53>
  4042b5:	89 fa                	mov    edx,edi
  4042b7:	b8 2e 00 00 00       	mov    eax,0x2e
  4042bc:	e8 1f f5 ff ff       	call   4037e0 <___pformat_putc>
  4042c1:	e9 d4 fe ff ff       	jmp    40419a <___pformat_emit_float+0x1fa>
  4042c6:	0f b7 57 14          	movzx  edx,WORD PTR [edi+0x14]
  4042ca:	e9 61 ff ff ff       	jmp    404230 <___pformat_emit_float+0x290>
  4042cf:	90                   	nop

004042d0 <___pformat_emit_efloat>:
  4042d0:	55                   	push   ebp
  4042d1:	83 e9 01             	sub    ecx,0x1
  4042d4:	57                   	push   edi
  4042d5:	89 d5                	mov    ebp,edx
  4042d7:	56                   	push   esi
  4042d8:	be 01 00 00 00       	mov    esi,0x1
  4042dd:	53                   	push   ebx
  4042de:	bb 67 66 66 66       	mov    ebx,0x66666667
  4042e3:	83 ec 1c             	sub    esp,0x1c
  4042e6:	89 44 24 04          	mov    DWORD PTR [esp+0x4],eax
  4042ea:	89 c8                	mov    eax,ecx
  4042ec:	8b 7c 24 30          	mov    edi,DWORD PTR [esp+0x30]
  4042f0:	c1 f8 1f             	sar    eax,0x1f
  4042f3:	89 44 24 0c          	mov    DWORD PTR [esp+0xc],eax
  4042f7:	89 c8                	mov    eax,ecx
  4042f9:	f7 eb                	imul   ebx
  4042fb:	89 4c 24 08          	mov    DWORD PTR [esp+0x8],ecx
  4042ff:	c1 f9 1f             	sar    ecx,0x1f
  404302:	c1 fa 02             	sar    edx,0x2
  404305:	89 d3                	mov    ebx,edx
  404307:	29 cb                	sub    ebx,ecx
  404309:	74 18                	je     404323 <___pformat_emit_efloat+0x53>
  40430b:	b9 67 66 66 66       	mov    ecx,0x66666667
  404310:	89 d8                	mov    eax,ebx
  404312:	83 c6 01             	add    esi,0x1
  404315:	f7 e9                	imul   ecx
  404317:	c1 fb 1f             	sar    ebx,0x1f
  40431a:	c1 fa 02             	sar    edx,0x2
  40431d:	29 da                	sub    edx,ebx
  40431f:	89 d3                	mov    ebx,edx
  404321:	75 ed                	jne    404310 <___pformat_emit_efloat+0x40>
  404323:	8b 47 20             	mov    eax,DWORD PTR [edi+0x20]
  404326:	39 c6                	cmp    esi,eax
  404328:	7d 02                	jge    40432c <___pformat_emit_efloat+0x5c>
  40432a:	89 c6                	mov    esi,eax
  40432c:	8b 57 08             	mov    edx,DWORD PTR [edi+0x8]
  40432f:	8d 46 02             	lea    eax,[esi+0x2]
  404332:	39 c2                	cmp    edx,eax
  404334:	7f 5a                	jg     404390 <___pformat_emit_efloat+0xc0>
  404336:	c7 47 08 ff ff ff ff 	mov    DWORD PTR [edi+0x8],0xffffffff
  40433d:	8b 44 24 04          	mov    eax,DWORD PTR [esp+0x4]
  404341:	b9 01 00 00 00       	mov    ecx,0x1
  404346:	89 ea                	mov    edx,ebp
  404348:	89 3c 24             	mov    DWORD PTR [esp],edi
  40434b:	83 c6 01             	add    esi,0x1
  40434e:	e8 4d fc ff ff       	call   403fa0 <___pformat_emit_float>
  404353:	8b 47 20             	mov    eax,DWORD PTR [edi+0x20]
  404356:	89 47 0c             	mov    DWORD PTR [edi+0xc],eax
  404359:	8b 47 04             	mov    eax,DWORD PTR [edi+0x4]
  40435c:	89 c2                	mov    edx,eax
  40435e:	83 e0 20             	and    eax,0x20
  404361:	81 ca c0 01 00 00    	or     edx,0x1c0
  404367:	83 c8 45             	or     eax,0x45
  40436a:	89 57 04             	mov    DWORD PTR [edi+0x4],edx
  40436d:	89 fa                	mov    edx,edi
  40436f:	e8 6c f4 ff ff       	call   4037e0 <___pformat_putc>
  404374:	8b 44 24 08          	mov    eax,DWORD PTR [esp+0x8]
  404378:	89 f9                	mov    ecx,edi
  40437a:	01 77 08             	add    DWORD PTR [edi+0x8],esi
  40437d:	8b 54 24 0c          	mov    edx,DWORD PTR [esp+0xc]
  404381:	e8 0a f7 ff ff       	call   403a90 <___pformat_int>
  404386:	83 c4 1c             	add    esp,0x1c
  404389:	5b                   	pop    ebx
  40438a:	5e                   	pop    esi
  40438b:	5f                   	pop    edi
  40438c:	5d                   	pop    ebp
  40438d:	c3                   	ret    
  40438e:	66 90                	xchg   ax,ax
  404390:	29 c2                	sub    edx,eax
  404392:	89 57 08             	mov    DWORD PTR [edi+0x8],edx
  404395:	eb a6                	jmp    40433d <___pformat_emit_efloat+0x6d>
  404397:	89 f6                	mov    esi,esi
  404399:	8d bc 27 00 00 00 00 	lea    edi,[edi+eiz*1+0x0]

004043a0 <___pformat_efloat>:
  4043a0:	56                   	push   esi
  4043a1:	53                   	push   ebx
  4043a2:	89 c3                	mov    ebx,eax
  4043a4:	83 ec 44             	sub    esp,0x44
  4043a7:	8b 40 0c             	mov    eax,DWORD PTR [eax+0xc]
  4043aa:	85 c0                	test   eax,eax
  4043ac:	78 72                	js     404420 <___pformat_efloat+0x80>
  4043ae:	83 c0 01             	add    eax,0x1
  4043b1:	db 6c 24 50          	fld    TBYTE PTR [esp+0x50]
  4043b5:	89 44 24 10          	mov    DWORD PTR [esp+0x10],eax
  4043b9:	8d 54 24 28          	lea    edx,[esp+0x28]
  4043bd:	db 7c 24 30          	fstp   TBYTE PTR [esp+0x30]
  4043c1:	8b 44 24 30          	mov    eax,DWORD PTR [esp+0x30]
  4043c5:	89 54 24 18          	mov    DWORD PTR [esp+0x18],edx
  4043c9:	8d 54 24 2c          	lea    edx,[esp+0x2c]
  4043cd:	89 54 24 14          	mov    DWORD PTR [esp+0x14],edx
  4043d1:	89 04 24             	mov    DWORD PTR [esp],eax
  4043d4:	8b 44 24 34          	mov    eax,DWORD PTR [esp+0x34]
  4043d8:	89 44 24 04          	mov    DWORD PTR [esp+0x4],eax
  4043dc:	8b 44 24 38          	mov    eax,DWORD PTR [esp+0x38]
  4043e0:	89 44 24 08          	mov    DWORD PTR [esp+0x8],eax
  4043e4:	8b 44 24 3c          	mov    eax,DWORD PTR [esp+0x3c]
  4043e8:	89 44 24 0c          	mov    DWORD PTR [esp+0xc],eax
  4043ec:	b8 02 00 00 00       	mov    eax,0x2
  4043f1:	e8 ea f2 ff ff       	call   4036e0 <___pformat_cvt>
  4043f6:	8b 4c 24 2c          	mov    ecx,DWORD PTR [esp+0x2c]
  4043fa:	81 f9 00 80 ff ff    	cmp    ecx,0xffff8000
  404400:	89 c6                	mov    esi,eax
  404402:	74 2c                	je     404430 <___pformat_efloat+0x90>
  404404:	89 c2                	mov    edx,eax
  404406:	8b 44 24 28          	mov    eax,DWORD PTR [esp+0x28]
  40440a:	89 1c 24             	mov    DWORD PTR [esp],ebx
  40440d:	e8 be fe ff ff       	call   4042d0 <___pformat_emit_efloat>
  404412:	89 34 24             	mov    DWORD PTR [esp],esi
  404415:	e8 86 2d 00 00       	call   4071a0 <___freedtoa>
  40441a:	83 c4 44             	add    esp,0x44
  40441d:	5b                   	pop    ebx
  40441e:	5e                   	pop    esi
  40441f:	c3                   	ret    
  404420:	c7 43 0c 06 00 00 00 	mov    DWORD PTR [ebx+0xc],0x6
  404427:	b8 07 00 00 00       	mov    eax,0x7
  40442c:	eb 83                	jmp    4043b1 <___pformat_efloat+0x11>
  40442e:	66 90                	xchg   ax,ax
  404430:	89 c2                	mov    edx,eax
  404432:	8b 44 24 28          	mov    eax,DWORD PTR [esp+0x28]
  404436:	89 d9                	mov    ecx,ebx
  404438:	e8 c3 f5 ff ff       	call   403a00 <___pformat_emit_inf_or_nan>
  40443d:	89 34 24             	mov    DWORD PTR [esp],esi
  404440:	e8 5b 2d 00 00       	call   4071a0 <___freedtoa>
  404445:	83 c4 44             	add    esp,0x44
  404448:	5b                   	pop    ebx
  404449:	5e                   	pop    esi
  40444a:	c3                   	ret    
  40444b:	90                   	nop
  40444c:	8d 74 26 00          	lea    esi,[esi+eiz*1+0x0]

00404450 <___pformat_float>:
  404450:	57                   	push   edi
  404451:	56                   	push   esi
  404452:	53                   	push   ebx
  404453:	89 c3                	mov    ebx,eax
  404455:	83 ec 40             	sub    esp,0x40
  404458:	8b 40 0c             	mov    eax,DWORD PTR [eax+0xc]
  40445b:	85 c0                	test   eax,eax
  40445d:	0f 88 9d 00 00 00    	js     404500 <___pformat_float+0xb0>
  404463:	db 6c 24 50          	fld    TBYTE PTR [esp+0x50]
  404467:	89 44 24 10          	mov    DWORD PTR [esp+0x10],eax
  40446b:	8d 54 24 28          	lea    edx,[esp+0x28]
  40446f:	db 7c 24 30          	fstp   TBYTE PTR [esp+0x30]
  404473:	8b 44 24 30          	mov    eax,DWORD PTR [esp+0x30]
  404477:	89 54 24 18          	mov    DWORD PTR [esp+0x18],edx
  40447b:	8d 54 24 2c          	lea    edx,[esp+0x2c]
  40447f:	89 54 24 14          	mov    DWORD PTR [esp+0x14],edx
  404483:	89 04 24             	mov    DWORD PTR [esp],eax
  404486:	8b 44 24 34          	mov    eax,DWORD PTR [esp+0x34]
  40448a:	89 44 24 04          	mov    DWORD PTR [esp+0x4],eax
  40448e:	8b 44 24 38          	mov    eax,DWORD PTR [esp+0x38]
  404492:	89 44 24 08          	mov    DWORD PTR [esp+0x8],eax
  404496:	8b 44 24 3c          	mov    eax,DWORD PTR [esp+0x3c]
  40449a:	89 44 24 0c          	mov    DWORD PTR [esp+0xc],eax
  40449e:	b8 03 00 00 00       	mov    eax,0x3
  4044a3:	e8 38 f2 ff ff       	call   4036e0 <___pformat_cvt>
  4044a8:	8b 4c 24 2c          	mov    ecx,DWORD PTR [esp+0x2c]
  4044ac:	81 f9 00 80 ff ff    	cmp    ecx,0xffff8000
  4044b2:	89 c7                	mov    edi,eax
  4044b4:	74 5b                	je     404511 <___pformat_float+0xc1>
  4044b6:	89 c2                	mov    edx,eax
  4044b8:	8b 44 24 28          	mov    eax,DWORD PTR [esp+0x28]
  4044bc:	89 1c 24             	mov    DWORD PTR [esp],ebx
  4044bf:	e8 dc fa ff ff       	call   403fa0 <___pformat_emit_float>
  4044c4:	8b 43 08             	mov    eax,DWORD PTR [ebx+0x8]
  4044c7:	8d 50 ff             	lea    edx,[eax-0x1]
  4044ca:	85 c0                	test   eax,eax
  4044cc:	89 53 08             	mov    DWORD PTR [ebx+0x8],edx
  4044cf:	7e 19                	jle    4044ea <___pformat_float+0x9a>
  4044d1:	89 da                	mov    edx,ebx
  4044d3:	b8 20 00 00 00       	mov    eax,0x20
  4044d8:	e8 03 f3 ff ff       	call   4037e0 <___pformat_putc>
  4044dd:	8b 4b 08             	mov    ecx,DWORD PTR [ebx+0x8]
  4044e0:	8d 71 ff             	lea    esi,[ecx-0x1]
  4044e3:	85 c9                	test   ecx,ecx
  4044e5:	89 73 08             	mov    DWORD PTR [ebx+0x8],esi
  4044e8:	7f e7                	jg     4044d1 <___pformat_float+0x81>
  4044ea:	89 3c 24             	mov    DWORD PTR [esp],edi
  4044ed:	e8 ae 2c 00 00       	call   4071a0 <___freedtoa>
  4044f2:	83 c4 40             	add    esp,0x40
  4044f5:	5b                   	pop    ebx
  4044f6:	5e                   	pop    esi
  4044f7:	5f                   	pop    edi
  4044f8:	c3                   	ret    
  4044f9:	8d b4 26 00 00 00 00 	lea    esi,[esi+eiz*1+0x0]
  404500:	c7 43 0c 06 00 00 00 	mov    DWORD PTR [ebx+0xc],0x6
  404507:	b8 06 00 00 00       	mov    eax,0x6
  40450c:	e9 52 ff ff ff       	jmp    404463 <___pformat_float+0x13>
  404511:	89 c2                	mov    edx,eax
  404513:	8b 44 24 28          	mov    eax,DWORD PTR [esp+0x28]
  404517:	89 d9                	mov    ecx,ebx
  404519:	e8 e2 f4 ff ff       	call   403a00 <___pformat_emit_inf_or_nan>
  40451e:	89 3c 24             	mov    DWORD PTR [esp],edi
  404521:	e8 7a 2c 00 00       	call   4071a0 <___freedtoa>
  404526:	83 c4 40             	add    esp,0x40
  404529:	5b                   	pop    ebx
  40452a:	5e                   	pop    esi
  40452b:	5f                   	pop    edi
  40452c:	c3                   	ret    
  40452d:	8d 76 00             	lea    esi,[esi+0x0]

00404530 <___pformat_gfloat>:
  404530:	57                   	push   edi
  404531:	56                   	push   esi
  404532:	53                   	push   ebx
  404533:	89 c3                	mov    ebx,eax
  404535:	83 ec 40             	sub    esp,0x40
  404538:	8b 40 0c             	mov    eax,DWORD PTR [eax+0xc]
  40453b:	85 c0                	test   eax,eax
  40453d:	0f 88 1d 01 00 00    	js     404660 <___pformat_gfloat+0x130>
  404543:	0f 84 fa 00 00 00    	je     404643 <___pformat_gfloat+0x113>
  404549:	db 6c 24 50          	fld    TBYTE PTR [esp+0x50]
  40454d:	89 44 24 10          	mov    DWORD PTR [esp+0x10],eax
  404551:	8d 54 24 28          	lea    edx,[esp+0x28]
  404555:	db 7c 24 30          	fstp   TBYTE PTR [esp+0x30]
  404559:	8b 44 24 30          	mov    eax,DWORD PTR [esp+0x30]
  40455d:	89 54 24 18          	mov    DWORD PTR [esp+0x18],edx
  404561:	8d 54 24 2c          	lea    edx,[esp+0x2c]
  404565:	89 54 24 14          	mov    DWORD PTR [esp+0x14],edx
  404569:	89 04 24             	mov    DWORD PTR [esp],eax
  40456c:	8b 44 24 34          	mov    eax,DWORD PTR [esp+0x34]
  404570:	89 44 24 04          	mov    DWORD PTR [esp+0x4],eax
  404574:	8b 44 24 38          	mov    eax,DWORD PTR [esp+0x38]
  404578:	89 44 24 08          	mov    DWORD PTR [esp+0x8],eax
  40457c:	8b 44 24 3c          	mov    eax,DWORD PTR [esp+0x3c]
  404580:	89 44 24 0c          	mov    DWORD PTR [esp+0xc],eax
  404584:	b8 02 00 00 00       	mov    eax,0x2
  404589:	e8 52 f1 ff ff       	call   4036e0 <___pformat_cvt>
  40458e:	8b 74 24 2c          	mov    esi,DWORD PTR [esp+0x2c]
  404592:	81 fe 00 80 ff ff    	cmp    esi,0xffff8000
  404598:	89 c7                	mov    edi,eax
  40459a:	0f 84 e0 00 00 00    	je     404680 <___pformat_gfloat+0x150>
  4045a0:	83 fe fd             	cmp    esi,0xfffffffd
  4045a3:	7c 6b                	jl     404610 <___pformat_gfloat+0xe0>
  4045a5:	8b 43 0c             	mov    eax,DWORD PTR [ebx+0xc]
  4045a8:	39 c6                	cmp    esi,eax
  4045aa:	7f 64                	jg     404610 <___pformat_gfloat+0xe0>
  4045ac:	f6 43 05 08          	test   BYTE PTR [ebx+0x5],0x8
  4045b0:	0f 85 bb 00 00 00    	jne    404671 <___pformat_gfloat+0x141>
  4045b6:	89 3c 24             	mov    DWORD PTR [esp],edi
  4045b9:	e8 f2 3a 00 00       	call   4080b0 <_strlen>
  4045be:	29 f0                	sub    eax,esi
  4045c0:	85 c0                	test   eax,eax
  4045c2:	89 43 0c             	mov    DWORD PTR [ebx+0xc],eax
  4045c5:	0f 88 c5 00 00 00    	js     404690 <___pformat_gfloat+0x160>
  4045cb:	8b 44 24 28          	mov    eax,DWORD PTR [esp+0x28]
  4045cf:	89 fa                	mov    edx,edi
  4045d1:	89 f1                	mov    ecx,esi
  4045d3:	89 1c 24             	mov    DWORD PTR [esp],ebx
  4045d6:	e8 c5 f9 ff ff       	call   403fa0 <___pformat_emit_float>
  4045db:	8b 43 08             	mov    eax,DWORD PTR [ebx+0x8]
  4045de:	8d 50 ff             	lea    edx,[eax-0x1]
  4045e1:	85 c0                	test   eax,eax
  4045e3:	89 53 08             	mov    DWORD PTR [ebx+0x8],edx
  4045e6:	7e 4c                	jle    404634 <___pformat_gfloat+0x104>
  4045e8:	89 da                	mov    edx,ebx
  4045ea:	b8 20 00 00 00       	mov    eax,0x20
  4045ef:	e8 ec f1 ff ff       	call   4037e0 <___pformat_putc>
  4045f4:	8b 4b 08             	mov    ecx,DWORD PTR [ebx+0x8]
  4045f7:	8d 71 ff             	lea    esi,[ecx-0x1]
  4045fa:	85 c9                	test   ecx,ecx
  4045fc:	89 73 08             	mov    DWORD PTR [ebx+0x8],esi
  4045ff:	7f e7                	jg     4045e8 <___pformat_gfloat+0xb8>
  404601:	89 3c 24             	mov    DWORD PTR [esp],edi
  404604:	e8 97 2b 00 00       	call   4071a0 <___freedtoa>
  404609:	83 c4 40             	add    esp,0x40
  40460c:	5b                   	pop    ebx
  40460d:	5e                   	pop    esi
  40460e:	5f                   	pop    edi
  40460f:	c3                   	ret    
  404610:	f6 43 05 08          	test   BYTE PTR [ebx+0x5],0x8
  404614:	75 3e                	jne    404654 <___pformat_gfloat+0x124>
  404616:	89 3c 24             	mov    DWORD PTR [esp],edi
  404619:	e8 92 3a 00 00       	call   4080b0 <_strlen>
  40461e:	83 e8 01             	sub    eax,0x1
  404621:	89 43 0c             	mov    DWORD PTR [ebx+0xc],eax
  404624:	8b 44 24 28          	mov    eax,DWORD PTR [esp+0x28]
  404628:	89 f1                	mov    ecx,esi
  40462a:	89 fa                	mov    edx,edi
  40462c:	89 1c 24             	mov    DWORD PTR [esp],ebx
  40462f:	e8 9c fc ff ff       	call   4042d0 <___pformat_emit_efloat>
  404634:	89 3c 24             	mov    DWORD PTR [esp],edi
  404637:	e8 64 2b 00 00       	call   4071a0 <___freedtoa>
  40463c:	83 c4 40             	add    esp,0x40
  40463f:	5b                   	pop    ebx
  404640:	5e                   	pop    esi
  404641:	5f                   	pop    edi
  404642:	c3                   	ret    
  404643:	c7 43 0c 01 00 00 00 	mov    DWORD PTR [ebx+0xc],0x1
  40464a:	b8 01 00 00 00       	mov    eax,0x1
  40464f:	e9 f5 fe ff ff       	jmp    404549 <___pformat_gfloat+0x19>
  404654:	83 6b 0c 01          	sub    DWORD PTR [ebx+0xc],0x1
  404658:	eb ca                	jmp    404624 <___pformat_gfloat+0xf4>
  40465a:	8d b6 00 00 00 00    	lea    esi,[esi+0x0]
  404660:	c7 43 0c 06 00 00 00 	mov    DWORD PTR [ebx+0xc],0x6
  404667:	b8 06 00 00 00       	mov    eax,0x6
  40466c:	e9 d8 fe ff ff       	jmp    404549 <___pformat_gfloat+0x19>
  404671:	29 f0                	sub    eax,esi
  404673:	89 43 0c             	mov    DWORD PTR [ebx+0xc],eax
  404676:	e9 50 ff ff ff       	jmp    4045cb <___pformat_gfloat+0x9b>
  40467b:	90                   	nop
  40467c:	8d 74 26 00          	lea    esi,[esi+eiz*1+0x0]
  404680:	89 c2                	mov    edx,eax
  404682:	8b 44 24 28          	mov    eax,DWORD PTR [esp+0x28]
  404686:	89 d9                	mov    ecx,ebx
  404688:	e8 73 f3 ff ff       	call   403a00 <___pformat_emit_inf_or_nan>
  40468d:	eb a5                	jmp    404634 <___pformat_gfloat+0x104>
  40468f:	90                   	nop
  404690:	8b 53 08             	mov    edx,DWORD PTR [ebx+0x8]
  404693:	85 d2                	test   edx,edx
  404695:	0f 8e 30 ff ff ff    	jle    4045cb <___pformat_gfloat+0x9b>
  40469b:	01 d0                	add    eax,edx
  40469d:	89 43 08             	mov    DWORD PTR [ebx+0x8],eax
  4046a0:	e9 26 ff ff ff       	jmp    4045cb <___pformat_gfloat+0x9b>
  4046a5:	8d 74 26 00          	lea    esi,[esi+eiz*1+0x0]
  4046a9:	8d bc 27 00 00 00 00 	lea    edi,[edi+eiz*1+0x0]

004046b0 <___pformat_xldouble>:
  4046b0:	55                   	push   ebp
  4046b1:	89 e5                	mov    ebp,esp
  4046b3:	57                   	push   edi
  4046b4:	89 c7                	mov    edi,eax
  4046b6:	56                   	push   esi
  4046b7:	53                   	push   ebx
  4046b8:	83 ec 6c             	sub    esp,0x6c
  4046bb:	db 6d 08             	fld    TBYTE PTR [ebp+0x8]
  4046be:	d9 c0                	fld    st(0)
  4046c0:	db 7d c0             	fstp   TBYTE PTR [ebp-0x40]
  4046c3:	d9 e5                	fxam   
  4046c5:	9b df e0             	fstsw  ax
  4046c8:	66 25 00 45          	and    ax,0x4500
  4046cc:	66 3d 00 01          	cmp    ax,0x100
  4046d0:	0f 84 1f 05 00 00    	je     404bf5 <___pformat_xldouble+0x545>
  4046d6:	0f b7 55 c8          	movzx  edx,WORD PTR [ebp-0x38]
  4046da:	89 d3                	mov    ebx,edx
  4046dc:	81 e3 00 80 00 00    	and    ebx,0x8000
  4046e2:	0f 85 48 01 00 00    	jne    404830 <___pformat_xldouble+0x180>
  4046e8:	d9 e5                	fxam   
  4046ea:	9b df e0             	fstsw  ax
  4046ed:	dd d8                	fstp   st(0)
  4046ef:	66 25 00 45          	and    ax,0x4500
  4046f3:	66 3d 00 05          	cmp    ax,0x500
  4046f7:	0f 84 16 05 00 00    	je     404c13 <___pformat_xldouble+0x563>
  4046fd:	66 81 e2 ff 7f       	and    dx,0x7fff
  404702:	0f 84 b8 01 00 00    	je     4048c0 <___pformat_xldouble+0x210>
  404708:	8d b2 01 c0 ff ff    	lea    esi,[edx-0x3fff]
  40470e:	8b 45 c0             	mov    eax,DWORD PTR [ebp-0x40]
